ARM GAS  C:\Users\smiy200\AppData\Local\Temp\ccj7N4EX.s 			page 1


   1              		.syntax unified
   2              		.cpu cortex-m3
   3              		.fpu softvfp
   4              		.eabi_attribute 20, 1
   5              		.eabi_attribute 21, 1
   6              		.eabi_attribute 23, 3
   7              		.eabi_attribute 24, 1
   8              		.eabi_attribute 25, 1
   9              		.eabi_attribute 26, 1
  10              		.eabi_attribute 30, 1
  11              		.eabi_attribute 34, 1
  12              		.eabi_attribute 18, 4
  13              		.thumb
  14              		.syntax unified
  15              		.file	"isr_TC.c"
  16              		.text
  17              	.Ltext0:
  18              		.cfi_sections	.debug_frame
  19              		.section	.text.isr_TC_Interrupt,"ax",%progbits
  20              		.align	2
  21              		.global	isr_TC_Interrupt
  22              		.thumb
  23              		.thumb_func
  24              		.type	isr_TC_Interrupt, %function
  25              	isr_TC_Interrupt:
  26              	.LFB66:
  27              		.file 1 "Generated_Source\\PSoC5\\isr_TC.c"
   1:Generated_Source\PSoC5/isr_TC.c **** /*******************************************************************************
   2:Generated_Source\PSoC5/isr_TC.c **** * File Name: isr_TC.c  
   3:Generated_Source\PSoC5/isr_TC.c **** * Version 1.70
   4:Generated_Source\PSoC5/isr_TC.c **** *
   5:Generated_Source\PSoC5/isr_TC.c **** *  Description:
   6:Generated_Source\PSoC5/isr_TC.c **** *   API for controlling the state of an interrupt.
   7:Generated_Source\PSoC5/isr_TC.c **** *
   8:Generated_Source\PSoC5/isr_TC.c **** *
   9:Generated_Source\PSoC5/isr_TC.c **** *  Note:
  10:Generated_Source\PSoC5/isr_TC.c **** *
  11:Generated_Source\PSoC5/isr_TC.c **** ********************************************************************************
  12:Generated_Source\PSoC5/isr_TC.c **** * Copyright 2008-2015, Cypress Semiconductor Corporation.  All rights reserved.
  13:Generated_Source\PSoC5/isr_TC.c **** * You may use this file only in accordance with the license, terms, conditions, 
  14:Generated_Source\PSoC5/isr_TC.c **** * disclaimers, and limitations in the end user license agreement accompanying 
  15:Generated_Source\PSoC5/isr_TC.c **** * the software package with which this file was provided.
  16:Generated_Source\PSoC5/isr_TC.c **** *******************************************************************************/
  17:Generated_Source\PSoC5/isr_TC.c **** 
  18:Generated_Source\PSoC5/isr_TC.c **** 
  19:Generated_Source\PSoC5/isr_TC.c **** #include <cydevice_trm.h>
  20:Generated_Source\PSoC5/isr_TC.c **** #include <CyLib.h>
  21:Generated_Source\PSoC5/isr_TC.c **** #include <isr_TC.h>
  22:Generated_Source\PSoC5/isr_TC.c **** #include "cyapicallbacks.h"
  23:Generated_Source\PSoC5/isr_TC.c **** 
  24:Generated_Source\PSoC5/isr_TC.c **** #if !defined(isr_TC__REMOVED) /* Check for removal by optimization */
  25:Generated_Source\PSoC5/isr_TC.c **** 
  26:Generated_Source\PSoC5/isr_TC.c **** /*******************************************************************************
  27:Generated_Source\PSoC5/isr_TC.c **** *  Place your includes, defines and code here 
  28:Generated_Source\PSoC5/isr_TC.c **** ********************************************************************************/
  29:Generated_Source\PSoC5/isr_TC.c **** /* `#START isr_TC_intc` */
  30:Generated_Source\PSoC5/isr_TC.c **** #include <project.h>
ARM GAS  C:\Users\smiy200\AppData\Local\Temp\ccj7N4EX.s 			page 2


  31:Generated_Source\PSoC5/isr_TC.c **** /* `#END` */
  32:Generated_Source\PSoC5/isr_TC.c **** 
  33:Generated_Source\PSoC5/isr_TC.c **** #ifndef CYINT_IRQ_BASE
  34:Generated_Source\PSoC5/isr_TC.c **** #define CYINT_IRQ_BASE      16
  35:Generated_Source\PSoC5/isr_TC.c **** #endif /* CYINT_IRQ_BASE */
  36:Generated_Source\PSoC5/isr_TC.c **** #ifndef CYINT_VECT_TABLE
  37:Generated_Source\PSoC5/isr_TC.c **** #define CYINT_VECT_TABLE    ((cyisraddress **) CYREG_NVIC_VECT_OFFSET)
  38:Generated_Source\PSoC5/isr_TC.c **** #endif /* CYINT_VECT_TABLE */
  39:Generated_Source\PSoC5/isr_TC.c **** 
  40:Generated_Source\PSoC5/isr_TC.c **** /* Declared in startup, used to set unused interrupts to. */
  41:Generated_Source\PSoC5/isr_TC.c **** CY_ISR_PROTO(IntDefaultHandler);
  42:Generated_Source\PSoC5/isr_TC.c **** 
  43:Generated_Source\PSoC5/isr_TC.c **** 
  44:Generated_Source\PSoC5/isr_TC.c **** /*******************************************************************************
  45:Generated_Source\PSoC5/isr_TC.c **** * Function Name: isr_TC_Start
  46:Generated_Source\PSoC5/isr_TC.c **** ********************************************************************************
  47:Generated_Source\PSoC5/isr_TC.c **** *
  48:Generated_Source\PSoC5/isr_TC.c **** * Summary:
  49:Generated_Source\PSoC5/isr_TC.c **** *  Set up the interrupt and enable it. This function disables the interrupt, 
  50:Generated_Source\PSoC5/isr_TC.c **** *  sets the default interrupt vector, sets the priority from the value in the
  51:Generated_Source\PSoC5/isr_TC.c **** *  Design Wide Resources Interrupt Editor, then enables the interrupt to the 
  52:Generated_Source\PSoC5/isr_TC.c **** *  interrupt controller.
  53:Generated_Source\PSoC5/isr_TC.c **** *
  54:Generated_Source\PSoC5/isr_TC.c **** * Parameters:  
  55:Generated_Source\PSoC5/isr_TC.c **** *   None
  56:Generated_Source\PSoC5/isr_TC.c **** *
  57:Generated_Source\PSoC5/isr_TC.c **** * Return:
  58:Generated_Source\PSoC5/isr_TC.c **** *   None
  59:Generated_Source\PSoC5/isr_TC.c **** *
  60:Generated_Source\PSoC5/isr_TC.c **** *******************************************************************************/
  61:Generated_Source\PSoC5/isr_TC.c **** void isr_TC_Start(void)
  62:Generated_Source\PSoC5/isr_TC.c **** {
  63:Generated_Source\PSoC5/isr_TC.c ****     /* For all we know the interrupt is active. */
  64:Generated_Source\PSoC5/isr_TC.c ****     isr_TC_Disable();
  65:Generated_Source\PSoC5/isr_TC.c **** 
  66:Generated_Source\PSoC5/isr_TC.c ****     /* Set the ISR to point to the isr_TC Interrupt. */
  67:Generated_Source\PSoC5/isr_TC.c ****     isr_TC_SetVector(&isr_TC_Interrupt);
  68:Generated_Source\PSoC5/isr_TC.c **** 
  69:Generated_Source\PSoC5/isr_TC.c ****     /* Set the priority. */
  70:Generated_Source\PSoC5/isr_TC.c ****     isr_TC_SetPriority((uint8)isr_TC_INTC_PRIOR_NUMBER);
  71:Generated_Source\PSoC5/isr_TC.c **** 
  72:Generated_Source\PSoC5/isr_TC.c ****     /* Enable it. */
  73:Generated_Source\PSoC5/isr_TC.c ****     isr_TC_Enable();
  74:Generated_Source\PSoC5/isr_TC.c **** }
  75:Generated_Source\PSoC5/isr_TC.c **** 
  76:Generated_Source\PSoC5/isr_TC.c **** 
  77:Generated_Source\PSoC5/isr_TC.c **** /*******************************************************************************
  78:Generated_Source\PSoC5/isr_TC.c **** * Function Name: isr_TC_StartEx
  79:Generated_Source\PSoC5/isr_TC.c **** ********************************************************************************
  80:Generated_Source\PSoC5/isr_TC.c **** *
  81:Generated_Source\PSoC5/isr_TC.c **** * Summary:
  82:Generated_Source\PSoC5/isr_TC.c **** *  Sets up the interrupt and enables it. This function disables the interrupt,
  83:Generated_Source\PSoC5/isr_TC.c **** *  sets the interrupt vector based on the address passed in, sets the priority 
  84:Generated_Source\PSoC5/isr_TC.c **** *  from the value in the Design Wide Resources Interrupt Editor, then enables 
  85:Generated_Source\PSoC5/isr_TC.c **** *  the interrupt to the interrupt controller.
  86:Generated_Source\PSoC5/isr_TC.c **** *  
  87:Generated_Source\PSoC5/isr_TC.c **** *  When defining ISR functions, the CY_ISR and CY_ISR_PROTO macros should be 
ARM GAS  C:\Users\smiy200\AppData\Local\Temp\ccj7N4EX.s 			page 3


  88:Generated_Source\PSoC5/isr_TC.c **** *  used to provide consistent definition across compilers:
  89:Generated_Source\PSoC5/isr_TC.c **** *  
  90:Generated_Source\PSoC5/isr_TC.c **** *  Function definition example:
  91:Generated_Source\PSoC5/isr_TC.c **** *   CY_ISR(MyISR)
  92:Generated_Source\PSoC5/isr_TC.c **** *   {
  93:Generated_Source\PSoC5/isr_TC.c **** *   }
  94:Generated_Source\PSoC5/isr_TC.c **** *   Function prototype example:
  95:Generated_Source\PSoC5/isr_TC.c **** *   CY_ISR_PROTO(MyISR);
  96:Generated_Source\PSoC5/isr_TC.c **** *
  97:Generated_Source\PSoC5/isr_TC.c **** * Parameters:  
  98:Generated_Source\PSoC5/isr_TC.c **** *   address: Address of the ISR to set in the interrupt vector table.
  99:Generated_Source\PSoC5/isr_TC.c **** *
 100:Generated_Source\PSoC5/isr_TC.c **** * Return:
 101:Generated_Source\PSoC5/isr_TC.c **** *   None
 102:Generated_Source\PSoC5/isr_TC.c **** *
 103:Generated_Source\PSoC5/isr_TC.c **** *******************************************************************************/
 104:Generated_Source\PSoC5/isr_TC.c **** void isr_TC_StartEx(cyisraddress address)
 105:Generated_Source\PSoC5/isr_TC.c **** {
 106:Generated_Source\PSoC5/isr_TC.c ****     /* For all we know the interrupt is active. */
 107:Generated_Source\PSoC5/isr_TC.c ****     isr_TC_Disable();
 108:Generated_Source\PSoC5/isr_TC.c **** 
 109:Generated_Source\PSoC5/isr_TC.c ****     /* Set the ISR to point to the isr_TC Interrupt. */
 110:Generated_Source\PSoC5/isr_TC.c ****     isr_TC_SetVector(address);
 111:Generated_Source\PSoC5/isr_TC.c **** 
 112:Generated_Source\PSoC5/isr_TC.c ****     /* Set the priority. */
 113:Generated_Source\PSoC5/isr_TC.c ****     isr_TC_SetPriority((uint8)isr_TC_INTC_PRIOR_NUMBER);
 114:Generated_Source\PSoC5/isr_TC.c **** 
 115:Generated_Source\PSoC5/isr_TC.c ****     /* Enable it. */
 116:Generated_Source\PSoC5/isr_TC.c ****     isr_TC_Enable();
 117:Generated_Source\PSoC5/isr_TC.c **** }
 118:Generated_Source\PSoC5/isr_TC.c **** 
 119:Generated_Source\PSoC5/isr_TC.c **** 
 120:Generated_Source\PSoC5/isr_TC.c **** /*******************************************************************************
 121:Generated_Source\PSoC5/isr_TC.c **** * Function Name: isr_TC_Stop
 122:Generated_Source\PSoC5/isr_TC.c **** ********************************************************************************
 123:Generated_Source\PSoC5/isr_TC.c **** *
 124:Generated_Source\PSoC5/isr_TC.c **** * Summary:
 125:Generated_Source\PSoC5/isr_TC.c **** *   Disables and removes the interrupt.
 126:Generated_Source\PSoC5/isr_TC.c **** *
 127:Generated_Source\PSoC5/isr_TC.c **** * Parameters:  
 128:Generated_Source\PSoC5/isr_TC.c **** *   None
 129:Generated_Source\PSoC5/isr_TC.c **** *
 130:Generated_Source\PSoC5/isr_TC.c **** * Return:
 131:Generated_Source\PSoC5/isr_TC.c **** *   None
 132:Generated_Source\PSoC5/isr_TC.c **** *
 133:Generated_Source\PSoC5/isr_TC.c **** *******************************************************************************/
 134:Generated_Source\PSoC5/isr_TC.c **** void isr_TC_Stop(void)
 135:Generated_Source\PSoC5/isr_TC.c **** {
 136:Generated_Source\PSoC5/isr_TC.c ****     /* Disable this interrupt. */
 137:Generated_Source\PSoC5/isr_TC.c ****     isr_TC_Disable();
 138:Generated_Source\PSoC5/isr_TC.c **** 
 139:Generated_Source\PSoC5/isr_TC.c ****     /* Set the ISR to point to the passive one. */
 140:Generated_Source\PSoC5/isr_TC.c ****     isr_TC_SetVector(&IntDefaultHandler);
 141:Generated_Source\PSoC5/isr_TC.c **** }
 142:Generated_Source\PSoC5/isr_TC.c **** 
 143:Generated_Source\PSoC5/isr_TC.c **** 
 144:Generated_Source\PSoC5/isr_TC.c **** /*******************************************************************************
ARM GAS  C:\Users\smiy200\AppData\Local\Temp\ccj7N4EX.s 			page 4


 145:Generated_Source\PSoC5/isr_TC.c **** * Function Name: isr_TC_Interrupt
 146:Generated_Source\PSoC5/isr_TC.c **** ********************************************************************************
 147:Generated_Source\PSoC5/isr_TC.c **** *
 148:Generated_Source\PSoC5/isr_TC.c **** * Summary:
 149:Generated_Source\PSoC5/isr_TC.c **** *   The default Interrupt Service Routine for isr_TC.
 150:Generated_Source\PSoC5/isr_TC.c **** *
 151:Generated_Source\PSoC5/isr_TC.c **** *   Add custom code between the coments to keep the next version of this file
 152:Generated_Source\PSoC5/isr_TC.c **** *   from over writting your code.
 153:Generated_Source\PSoC5/isr_TC.c **** *
 154:Generated_Source\PSoC5/isr_TC.c **** * Parameters:  
 155:Generated_Source\PSoC5/isr_TC.c **** *
 156:Generated_Source\PSoC5/isr_TC.c **** * Return:
 157:Generated_Source\PSoC5/isr_TC.c **** *   None
 158:Generated_Source\PSoC5/isr_TC.c **** *
 159:Generated_Source\PSoC5/isr_TC.c **** *******************************************************************************/
 160:Generated_Source\PSoC5/isr_TC.c **** CY_ISR(isr_TC_Interrupt)
 161:Generated_Source\PSoC5/isr_TC.c **** {
  28              		.loc 1 161 0
  29              		.cfi_startproc
  30              		@ args = 0, pretend = 0, frame = 0
  31              		@ frame_needed = 0, uses_anonymous_args = 0
  32 0000 08B5     		push	{r3, lr}
  33              		.cfi_def_cfa_offset 8
  34              		.cfi_offset 3, -8
  35              		.cfi_offset 14, -4
 162:Generated_Source\PSoC5/isr_TC.c ****     #ifdef isr_TC_INTERRUPT_INTERRUPT_CALLBACK
 163:Generated_Source\PSoC5/isr_TC.c ****         isr_TC_Interrupt_InterruptCallback();
 164:Generated_Source\PSoC5/isr_TC.c ****     #endif /* isr_TC_INTERRUPT_INTERRUPT_CALLBACK */ 
 165:Generated_Source\PSoC5/isr_TC.c **** 
 166:Generated_Source\PSoC5/isr_TC.c ****     /*  Place your Interrupt code here. */
 167:Generated_Source\PSoC5/isr_TC.c ****     /* `#START isr_TC_Interrupt` */
 168:Generated_Source\PSoC5/isr_TC.c ****     LED_Write(~LED_Read());
  36              		.loc 1 168 0
  37 0002 FFF7FEFF 		bl	LED_Read
  38              	.LVL0:
  39 0006 C043     		mvns	r0, r0
  40 0008 C0B2     		uxtb	r0, r0
  41 000a FFF7FEFF 		bl	LED_Write
  42              	.LVL1:
  43 000e 08BD     		pop	{r3, pc}
  44              		.cfi_endproc
  45              	.LFE66:
  46              		.size	isr_TC_Interrupt, .-isr_TC_Interrupt
  47              		.section	.text.isr_TC_SetVector,"ax",%progbits
  48              		.align	2
  49              		.global	isr_TC_SetVector
  50              		.thumb
  51              		.thumb_func
  52              		.type	isr_TC_SetVector, %function
  53              	isr_TC_SetVector:
  54              	.LFB67:
 169:Generated_Source\PSoC5/isr_TC.c ****     
 170:Generated_Source\PSoC5/isr_TC.c ****     /* `#END` */
 171:Generated_Source\PSoC5/isr_TC.c **** }
 172:Generated_Source\PSoC5/isr_TC.c **** 
 173:Generated_Source\PSoC5/isr_TC.c **** 
 174:Generated_Source\PSoC5/isr_TC.c **** /*******************************************************************************
ARM GAS  C:\Users\smiy200\AppData\Local\Temp\ccj7N4EX.s 			page 5


 175:Generated_Source\PSoC5/isr_TC.c **** * Function Name: isr_TC_SetVector
 176:Generated_Source\PSoC5/isr_TC.c **** ********************************************************************************
 177:Generated_Source\PSoC5/isr_TC.c **** *
 178:Generated_Source\PSoC5/isr_TC.c **** * Summary:
 179:Generated_Source\PSoC5/isr_TC.c **** *   Change the ISR vector for the Interrupt. Note calling isr_TC_Start
 180:Generated_Source\PSoC5/isr_TC.c **** *   will override any effect this method would have had. To set the vector 
 181:Generated_Source\PSoC5/isr_TC.c **** *   before the component has been started use isr_TC_StartEx instead.
 182:Generated_Source\PSoC5/isr_TC.c **** * 
 183:Generated_Source\PSoC5/isr_TC.c **** *   When defining ISR functions, the CY_ISR and CY_ISR_PROTO macros should be 
 184:Generated_Source\PSoC5/isr_TC.c **** *   used to provide consistent definition across compilers:
 185:Generated_Source\PSoC5/isr_TC.c **** *
 186:Generated_Source\PSoC5/isr_TC.c **** *   Function definition example:
 187:Generated_Source\PSoC5/isr_TC.c **** *   CY_ISR(MyISR)
 188:Generated_Source\PSoC5/isr_TC.c **** *   {
 189:Generated_Source\PSoC5/isr_TC.c **** *   }
 190:Generated_Source\PSoC5/isr_TC.c **** *
 191:Generated_Source\PSoC5/isr_TC.c **** *   Function prototype example:
 192:Generated_Source\PSoC5/isr_TC.c **** *     CY_ISR_PROTO(MyISR);
 193:Generated_Source\PSoC5/isr_TC.c **** *
 194:Generated_Source\PSoC5/isr_TC.c **** * Parameters:
 195:Generated_Source\PSoC5/isr_TC.c **** *   address: Address of the ISR to set in the interrupt vector table.
 196:Generated_Source\PSoC5/isr_TC.c **** *
 197:Generated_Source\PSoC5/isr_TC.c **** * Return:
 198:Generated_Source\PSoC5/isr_TC.c **** *   None
 199:Generated_Source\PSoC5/isr_TC.c **** *
 200:Generated_Source\PSoC5/isr_TC.c **** *******************************************************************************/
 201:Generated_Source\PSoC5/isr_TC.c **** void isr_TC_SetVector(cyisraddress address)
 202:Generated_Source\PSoC5/isr_TC.c **** {
  55              		.loc 1 202 0
  56              		.cfi_startproc
  57              		@ args = 0, pretend = 0, frame = 0
  58              		@ frame_needed = 0, uses_anonymous_args = 0
  59              		@ link register save eliminated.
  60              	.LVL2:
 203:Generated_Source\PSoC5/isr_TC.c ****     cyisraddress * ramVectorTable;
 204:Generated_Source\PSoC5/isr_TC.c **** 
 205:Generated_Source\PSoC5/isr_TC.c ****     ramVectorTable = (cyisraddress *) *CYINT_VECT_TABLE;
  61              		.loc 1 205 0
  62 0000 014B     		ldr	r3, .L4
  63 0002 1B68     		ldr	r3, [r3]
  64              	.LVL3:
 206:Generated_Source\PSoC5/isr_TC.c **** 
 207:Generated_Source\PSoC5/isr_TC.c ****     ramVectorTable[CYINT_IRQ_BASE + (uint32)isr_TC__INTC_NUMBER] = address;
  65              		.loc 1 207 0
  66 0004 1864     		str	r0, [r3, #64]
  67 0006 7047     		bx	lr
  68              	.L5:
  69              		.align	2
  70              	.L4:
  71 0008 08ED00E0 		.word	-536810232
  72              		.cfi_endproc
  73              	.LFE67:
  74              		.size	isr_TC_SetVector, .-isr_TC_SetVector
  75              		.section	.text.isr_TC_GetVector,"ax",%progbits
  76              		.align	2
  77              		.global	isr_TC_GetVector
  78              		.thumb
ARM GAS  C:\Users\smiy200\AppData\Local\Temp\ccj7N4EX.s 			page 6


  79              		.thumb_func
  80              		.type	isr_TC_GetVector, %function
  81              	isr_TC_GetVector:
  82              	.LFB68:
 208:Generated_Source\PSoC5/isr_TC.c **** }
 209:Generated_Source\PSoC5/isr_TC.c **** 
 210:Generated_Source\PSoC5/isr_TC.c **** 
 211:Generated_Source\PSoC5/isr_TC.c **** /*******************************************************************************
 212:Generated_Source\PSoC5/isr_TC.c **** * Function Name: isr_TC_GetVector
 213:Generated_Source\PSoC5/isr_TC.c **** ********************************************************************************
 214:Generated_Source\PSoC5/isr_TC.c **** *
 215:Generated_Source\PSoC5/isr_TC.c **** * Summary:
 216:Generated_Source\PSoC5/isr_TC.c **** *   Gets the "address" of the current ISR vector for the Interrupt.
 217:Generated_Source\PSoC5/isr_TC.c **** *
 218:Generated_Source\PSoC5/isr_TC.c **** * Parameters:
 219:Generated_Source\PSoC5/isr_TC.c **** *   None
 220:Generated_Source\PSoC5/isr_TC.c **** *
 221:Generated_Source\PSoC5/isr_TC.c **** * Return:
 222:Generated_Source\PSoC5/isr_TC.c **** *   Address of the ISR in the interrupt vector table.
 223:Generated_Source\PSoC5/isr_TC.c **** *
 224:Generated_Source\PSoC5/isr_TC.c **** *******************************************************************************/
 225:Generated_Source\PSoC5/isr_TC.c **** cyisraddress isr_TC_GetVector(void)
 226:Generated_Source\PSoC5/isr_TC.c **** {
  83              		.loc 1 226 0
  84              		.cfi_startproc
  85              		@ args = 0, pretend = 0, frame = 0
  86              		@ frame_needed = 0, uses_anonymous_args = 0
  87              		@ link register save eliminated.
 227:Generated_Source\PSoC5/isr_TC.c ****     cyisraddress * ramVectorTable;
 228:Generated_Source\PSoC5/isr_TC.c **** 
 229:Generated_Source\PSoC5/isr_TC.c ****     ramVectorTable = (cyisraddress *) *CYINT_VECT_TABLE;
  88              		.loc 1 229 0
  89 0000 014B     		ldr	r3, .L7
  90 0002 1B68     		ldr	r3, [r3]
  91              	.LVL4:
 230:Generated_Source\PSoC5/isr_TC.c **** 
 231:Generated_Source\PSoC5/isr_TC.c ****     return ramVectorTable[CYINT_IRQ_BASE + (uint32)isr_TC__INTC_NUMBER];
 232:Generated_Source\PSoC5/isr_TC.c **** }
  92              		.loc 1 232 0
  93 0004 186C     		ldr	r0, [r3, #64]
  94 0006 7047     		bx	lr
  95              	.L8:
  96              		.align	2
  97              	.L7:
  98 0008 08ED00E0 		.word	-536810232
  99              		.cfi_endproc
 100              	.LFE68:
 101              		.size	isr_TC_GetVector, .-isr_TC_GetVector
 102              		.section	.text.isr_TC_SetPriority,"ax",%progbits
 103              		.align	2
 104              		.global	isr_TC_SetPriority
 105              		.thumb
 106              		.thumb_func
 107              		.type	isr_TC_SetPriority, %function
 108              	isr_TC_SetPriority:
 109              	.LFB69:
 233:Generated_Source\PSoC5/isr_TC.c **** 
ARM GAS  C:\Users\smiy200\AppData\Local\Temp\ccj7N4EX.s 			page 7


 234:Generated_Source\PSoC5/isr_TC.c **** 
 235:Generated_Source\PSoC5/isr_TC.c **** /*******************************************************************************
 236:Generated_Source\PSoC5/isr_TC.c **** * Function Name: isr_TC_SetPriority
 237:Generated_Source\PSoC5/isr_TC.c **** ********************************************************************************
 238:Generated_Source\PSoC5/isr_TC.c **** *
 239:Generated_Source\PSoC5/isr_TC.c **** * Summary:
 240:Generated_Source\PSoC5/isr_TC.c **** *   Sets the Priority of the Interrupt. 
 241:Generated_Source\PSoC5/isr_TC.c **** *
 242:Generated_Source\PSoC5/isr_TC.c **** *   Note calling isr_TC_Start or isr_TC_StartEx will 
 243:Generated_Source\PSoC5/isr_TC.c **** *   override any effect this API would have had. This API should only be called
 244:Generated_Source\PSoC5/isr_TC.c **** *   after isr_TC_Start or isr_TC_StartEx has been called. 
 245:Generated_Source\PSoC5/isr_TC.c **** *   To set the initial priority for the component, use the Design-Wide Resources
 246:Generated_Source\PSoC5/isr_TC.c **** *   Interrupt Editor.
 247:Generated_Source\PSoC5/isr_TC.c **** *
 248:Generated_Source\PSoC5/isr_TC.c **** *   Note This API has no effect on Non-maskable interrupt NMI).
 249:Generated_Source\PSoC5/isr_TC.c **** *
 250:Generated_Source\PSoC5/isr_TC.c **** * Parameters:
 251:Generated_Source\PSoC5/isr_TC.c **** *   priority: Priority of the interrupt, 0 being the highest priority
 252:Generated_Source\PSoC5/isr_TC.c **** *             PSoC 3 and PSoC 5LP: Priority is from 0 to 7.
 253:Generated_Source\PSoC5/isr_TC.c **** *             PSoC 4: Priority is from 0 to 3.
 254:Generated_Source\PSoC5/isr_TC.c **** *
 255:Generated_Source\PSoC5/isr_TC.c **** * Return:
 256:Generated_Source\PSoC5/isr_TC.c **** *   None
 257:Generated_Source\PSoC5/isr_TC.c **** *
 258:Generated_Source\PSoC5/isr_TC.c **** *******************************************************************************/
 259:Generated_Source\PSoC5/isr_TC.c **** void isr_TC_SetPriority(uint8 priority)
 260:Generated_Source\PSoC5/isr_TC.c **** {
 110              		.loc 1 260 0
 111              		.cfi_startproc
 112              		@ args = 0, pretend = 0, frame = 0
 113              		@ frame_needed = 0, uses_anonymous_args = 0
 114              		@ link register save eliminated.
 115              	.LVL5:
 261:Generated_Source\PSoC5/isr_TC.c ****     *isr_TC_INTC_PRIOR = priority << 5;
 116              		.loc 1 261 0
 117 0000 4001     		lsls	r0, r0, #5
 118              	.LVL6:
 119 0002 C0B2     		uxtb	r0, r0
 120 0004 014B     		ldr	r3, .L10
 121 0006 1870     		strb	r0, [r3]
 122 0008 7047     		bx	lr
 123              	.L11:
 124 000a 00BF     		.align	2
 125              	.L10:
 126 000c 00E400E0 		.word	-536812544
 127              		.cfi_endproc
 128              	.LFE69:
 129              		.size	isr_TC_SetPriority, .-isr_TC_SetPriority
 130              		.section	.text.isr_TC_GetPriority,"ax",%progbits
 131              		.align	2
 132              		.global	isr_TC_GetPriority
 133              		.thumb
 134              		.thumb_func
 135              		.type	isr_TC_GetPriority, %function
 136              	isr_TC_GetPriority:
 137              	.LFB70:
 262:Generated_Source\PSoC5/isr_TC.c **** }
ARM GAS  C:\Users\smiy200\AppData\Local\Temp\ccj7N4EX.s 			page 8


 263:Generated_Source\PSoC5/isr_TC.c **** 
 264:Generated_Source\PSoC5/isr_TC.c **** 
 265:Generated_Source\PSoC5/isr_TC.c **** /*******************************************************************************
 266:Generated_Source\PSoC5/isr_TC.c **** * Function Name: isr_TC_GetPriority
 267:Generated_Source\PSoC5/isr_TC.c **** ********************************************************************************
 268:Generated_Source\PSoC5/isr_TC.c **** *
 269:Generated_Source\PSoC5/isr_TC.c **** * Summary:
 270:Generated_Source\PSoC5/isr_TC.c **** *   Gets the Priority of the Interrupt.
 271:Generated_Source\PSoC5/isr_TC.c **** *
 272:Generated_Source\PSoC5/isr_TC.c **** * Parameters:
 273:Generated_Source\PSoC5/isr_TC.c **** *   None
 274:Generated_Source\PSoC5/isr_TC.c **** *
 275:Generated_Source\PSoC5/isr_TC.c **** * Return:
 276:Generated_Source\PSoC5/isr_TC.c **** *   Priority of the interrupt, 0 being the highest priority
 277:Generated_Source\PSoC5/isr_TC.c **** *    PSoC 3 and PSoC 5LP: Priority is from 0 to 7.
 278:Generated_Source\PSoC5/isr_TC.c **** *    PSoC 4: Priority is from 0 to 3.
 279:Generated_Source\PSoC5/isr_TC.c **** *
 280:Generated_Source\PSoC5/isr_TC.c **** *******************************************************************************/
 281:Generated_Source\PSoC5/isr_TC.c **** uint8 isr_TC_GetPriority(void)
 282:Generated_Source\PSoC5/isr_TC.c **** {
 138              		.loc 1 282 0
 139              		.cfi_startproc
 140              		@ args = 0, pretend = 0, frame = 0
 141              		@ frame_needed = 0, uses_anonymous_args = 0
 142              		@ link register save eliminated.
 283:Generated_Source\PSoC5/isr_TC.c ****     uint8 priority;
 284:Generated_Source\PSoC5/isr_TC.c **** 
 285:Generated_Source\PSoC5/isr_TC.c **** 
 286:Generated_Source\PSoC5/isr_TC.c ****     priority = *isr_TC_INTC_PRIOR >> 5;
 143              		.loc 1 286 0
 144 0000 014B     		ldr	r3, .L13
 145 0002 1878     		ldrb	r0, [r3]	@ zero_extendqisi2
 146              	.LVL7:
 287:Generated_Source\PSoC5/isr_TC.c **** 
 288:Generated_Source\PSoC5/isr_TC.c ****     return priority;
 289:Generated_Source\PSoC5/isr_TC.c **** }
 147              		.loc 1 289 0
 148 0004 4009     		lsrs	r0, r0, #5
 149              	.LVL8:
 150 0006 7047     		bx	lr
 151              	.L14:
 152              		.align	2
 153              	.L13:
 154 0008 00E400E0 		.word	-536812544
 155              		.cfi_endproc
 156              	.LFE70:
 157              		.size	isr_TC_GetPriority, .-isr_TC_GetPriority
 158              		.section	.text.isr_TC_Enable,"ax",%progbits
 159              		.align	2
 160              		.global	isr_TC_Enable
 161              		.thumb
 162              		.thumb_func
 163              		.type	isr_TC_Enable, %function
 164              	isr_TC_Enable:
 165              	.LFB71:
 290:Generated_Source\PSoC5/isr_TC.c **** 
 291:Generated_Source\PSoC5/isr_TC.c **** 
ARM GAS  C:\Users\smiy200\AppData\Local\Temp\ccj7N4EX.s 			page 9


 292:Generated_Source\PSoC5/isr_TC.c **** /*******************************************************************************
 293:Generated_Source\PSoC5/isr_TC.c **** * Function Name: isr_TC_Enable
 294:Generated_Source\PSoC5/isr_TC.c **** ********************************************************************************
 295:Generated_Source\PSoC5/isr_TC.c **** *
 296:Generated_Source\PSoC5/isr_TC.c **** * Summary:
 297:Generated_Source\PSoC5/isr_TC.c **** *   Enables the interrupt to the interrupt controller. Do not call this function
 298:Generated_Source\PSoC5/isr_TC.c **** *   unless ISR_Start() has been called or the functionality of the ISR_Start() 
 299:Generated_Source\PSoC5/isr_TC.c **** *   function, which sets the vector and the priority, has been called.
 300:Generated_Source\PSoC5/isr_TC.c **** *
 301:Generated_Source\PSoC5/isr_TC.c **** * Parameters:
 302:Generated_Source\PSoC5/isr_TC.c **** *   None
 303:Generated_Source\PSoC5/isr_TC.c **** *
 304:Generated_Source\PSoC5/isr_TC.c **** * Return:
 305:Generated_Source\PSoC5/isr_TC.c **** *   None
 306:Generated_Source\PSoC5/isr_TC.c **** *
 307:Generated_Source\PSoC5/isr_TC.c **** *******************************************************************************/
 308:Generated_Source\PSoC5/isr_TC.c **** void isr_TC_Enable(void)
 309:Generated_Source\PSoC5/isr_TC.c **** {
 166              		.loc 1 309 0
 167              		.cfi_startproc
 168              		@ args = 0, pretend = 0, frame = 0
 169              		@ frame_needed = 0, uses_anonymous_args = 0
 170              		@ link register save eliminated.
 310:Generated_Source\PSoC5/isr_TC.c ****     /* Enable the general interrupt. */
 311:Generated_Source\PSoC5/isr_TC.c ****     *isr_TC_INTC_SET_EN = isr_TC__INTC_MASK;
 171              		.loc 1 311 0
 172 0000 0122     		movs	r2, #1
 173 0002 014B     		ldr	r3, .L16
 174 0004 1A60     		str	r2, [r3]
 175 0006 7047     		bx	lr
 176              	.L17:
 177              		.align	2
 178              	.L16:
 179 0008 00E100E0 		.word	-536813312
 180              		.cfi_endproc
 181              	.LFE71:
 182              		.size	isr_TC_Enable, .-isr_TC_Enable
 183              		.section	.text.isr_TC_GetState,"ax",%progbits
 184              		.align	2
 185              		.global	isr_TC_GetState
 186              		.thumb
 187              		.thumb_func
 188              		.type	isr_TC_GetState, %function
 189              	isr_TC_GetState:
 190              	.LFB72:
 312:Generated_Source\PSoC5/isr_TC.c **** }
 313:Generated_Source\PSoC5/isr_TC.c **** 
 314:Generated_Source\PSoC5/isr_TC.c **** 
 315:Generated_Source\PSoC5/isr_TC.c **** /*******************************************************************************
 316:Generated_Source\PSoC5/isr_TC.c **** * Function Name: isr_TC_GetState
 317:Generated_Source\PSoC5/isr_TC.c **** ********************************************************************************
 318:Generated_Source\PSoC5/isr_TC.c **** *
 319:Generated_Source\PSoC5/isr_TC.c **** * Summary:
 320:Generated_Source\PSoC5/isr_TC.c **** *   Gets the state (enabled, disabled) of the Interrupt.
 321:Generated_Source\PSoC5/isr_TC.c **** *
 322:Generated_Source\PSoC5/isr_TC.c **** * Parameters:
 323:Generated_Source\PSoC5/isr_TC.c **** *   None
ARM GAS  C:\Users\smiy200\AppData\Local\Temp\ccj7N4EX.s 			page 10


 324:Generated_Source\PSoC5/isr_TC.c **** *
 325:Generated_Source\PSoC5/isr_TC.c **** * Return:
 326:Generated_Source\PSoC5/isr_TC.c **** *   1 if enabled, 0 if disabled.
 327:Generated_Source\PSoC5/isr_TC.c **** *
 328:Generated_Source\PSoC5/isr_TC.c **** *******************************************************************************/
 329:Generated_Source\PSoC5/isr_TC.c **** uint8 isr_TC_GetState(void)
 330:Generated_Source\PSoC5/isr_TC.c **** {
 191              		.loc 1 330 0
 192              		.cfi_startproc
 193              		@ args = 0, pretend = 0, frame = 0
 194              		@ frame_needed = 0, uses_anonymous_args = 0
 195              		@ link register save eliminated.
 331:Generated_Source\PSoC5/isr_TC.c ****     /* Get the state of the general interrupt. */
 332:Generated_Source\PSoC5/isr_TC.c ****     return ((*isr_TC_INTC_SET_EN & (uint32)isr_TC__INTC_MASK) != 0u) ? 1u:0u;
 196              		.loc 1 332 0
 197 0000 024B     		ldr	r3, .L19
 198 0002 1868     		ldr	r0, [r3]
 333:Generated_Source\PSoC5/isr_TC.c **** }
 199              		.loc 1 333 0
 200 0004 00F00100 		and	r0, r0, #1
 201 0008 7047     		bx	lr
 202              	.L20:
 203 000a 00BF     		.align	2
 204              	.L19:
 205 000c 00E100E0 		.word	-536813312
 206              		.cfi_endproc
 207              	.LFE72:
 208              		.size	isr_TC_GetState, .-isr_TC_GetState
 209              		.section	.text.isr_TC_Disable,"ax",%progbits
 210              		.align	2
 211              		.global	isr_TC_Disable
 212              		.thumb
 213              		.thumb_func
 214              		.type	isr_TC_Disable, %function
 215              	isr_TC_Disable:
 216              	.LFB73:
 334:Generated_Source\PSoC5/isr_TC.c **** 
 335:Generated_Source\PSoC5/isr_TC.c **** 
 336:Generated_Source\PSoC5/isr_TC.c **** /*******************************************************************************
 337:Generated_Source\PSoC5/isr_TC.c **** * Function Name: isr_TC_Disable
 338:Generated_Source\PSoC5/isr_TC.c **** ********************************************************************************
 339:Generated_Source\PSoC5/isr_TC.c **** *
 340:Generated_Source\PSoC5/isr_TC.c **** * Summary:
 341:Generated_Source\PSoC5/isr_TC.c **** *   Disables the Interrupt in the interrupt controller.
 342:Generated_Source\PSoC5/isr_TC.c **** *
 343:Generated_Source\PSoC5/isr_TC.c **** * Parameters:
 344:Generated_Source\PSoC5/isr_TC.c **** *   None
 345:Generated_Source\PSoC5/isr_TC.c **** *
 346:Generated_Source\PSoC5/isr_TC.c **** * Return:
 347:Generated_Source\PSoC5/isr_TC.c **** *   None
 348:Generated_Source\PSoC5/isr_TC.c **** *
 349:Generated_Source\PSoC5/isr_TC.c **** *******************************************************************************/
 350:Generated_Source\PSoC5/isr_TC.c **** void isr_TC_Disable(void)
 351:Generated_Source\PSoC5/isr_TC.c **** {
 217              		.loc 1 351 0
 218              		.cfi_startproc
 219              		@ args = 0, pretend = 0, frame = 0
ARM GAS  C:\Users\smiy200\AppData\Local\Temp\ccj7N4EX.s 			page 11


 220              		@ frame_needed = 0, uses_anonymous_args = 0
 221              		@ link register save eliminated.
 352:Generated_Source\PSoC5/isr_TC.c ****     /* Disable the general interrupt. */
 353:Generated_Source\PSoC5/isr_TC.c ****     *isr_TC_INTC_CLR_EN = isr_TC__INTC_MASK;
 222              		.loc 1 353 0
 223 0000 0122     		movs	r2, #1
 224 0002 014B     		ldr	r3, .L22
 225 0004 1A60     		str	r2, [r3]
 226 0006 7047     		bx	lr
 227              	.L23:
 228              		.align	2
 229              	.L22:
 230 0008 80E100E0 		.word	-536813184
 231              		.cfi_endproc
 232              	.LFE73:
 233              		.size	isr_TC_Disable, .-isr_TC_Disable
 234              		.section	.text.isr_TC_Start,"ax",%progbits
 235              		.align	2
 236              		.global	isr_TC_Start
 237              		.thumb
 238              		.thumb_func
 239              		.type	isr_TC_Start, %function
 240              	isr_TC_Start:
 241              	.LFB63:
  62:Generated_Source\PSoC5/isr_TC.c ****     /* For all we know the interrupt is active. */
 242              		.loc 1 62 0
 243              		.cfi_startproc
 244              		@ args = 0, pretend = 0, frame = 0
 245              		@ frame_needed = 0, uses_anonymous_args = 0
 246 0000 08B5     		push	{r3, lr}
 247              		.cfi_def_cfa_offset 8
 248              		.cfi_offset 3, -8
 249              		.cfi_offset 14, -4
  64:Generated_Source\PSoC5/isr_TC.c **** 
 250              		.loc 1 64 0
 251 0002 FFF7FEFF 		bl	isr_TC_Disable
 252              	.LVL9:
  67:Generated_Source\PSoC5/isr_TC.c **** 
 253              		.loc 1 67 0
 254 0006 0448     		ldr	r0, .L26
 255 0008 FFF7FEFF 		bl	isr_TC_SetVector
 256              	.LVL10:
  70:Generated_Source\PSoC5/isr_TC.c **** 
 257              		.loc 1 70 0
 258 000c 0720     		movs	r0, #7
 259 000e FFF7FEFF 		bl	isr_TC_SetPriority
 260              	.LVL11:
  73:Generated_Source\PSoC5/isr_TC.c **** }
 261              		.loc 1 73 0
 262 0012 FFF7FEFF 		bl	isr_TC_Enable
 263              	.LVL12:
 264 0016 08BD     		pop	{r3, pc}
 265              	.L27:
 266              		.align	2
 267              	.L26:
 268 0018 00000000 		.word	isr_TC_Interrupt
 269              		.cfi_endproc
ARM GAS  C:\Users\smiy200\AppData\Local\Temp\ccj7N4EX.s 			page 12


 270              	.LFE63:
 271              		.size	isr_TC_Start, .-isr_TC_Start
 272              		.section	.text.isr_TC_StartEx,"ax",%progbits
 273              		.align	2
 274              		.global	isr_TC_StartEx
 275              		.thumb
 276              		.thumb_func
 277              		.type	isr_TC_StartEx, %function
 278              	isr_TC_StartEx:
 279              	.LFB64:
 105:Generated_Source\PSoC5/isr_TC.c ****     /* For all we know the interrupt is active. */
 280              		.loc 1 105 0
 281              		.cfi_startproc
 282              		@ args = 0, pretend = 0, frame = 0
 283              		@ frame_needed = 0, uses_anonymous_args = 0
 284              	.LVL13:
 285 0000 10B5     		push	{r4, lr}
 286              		.cfi_def_cfa_offset 8
 287              		.cfi_offset 4, -8
 288              		.cfi_offset 14, -4
 289 0002 0446     		mov	r4, r0
 107:Generated_Source\PSoC5/isr_TC.c **** 
 290              		.loc 1 107 0
 291 0004 FFF7FEFF 		bl	isr_TC_Disable
 292              	.LVL14:
 110:Generated_Source\PSoC5/isr_TC.c **** 
 293              		.loc 1 110 0
 294 0008 2046     		mov	r0, r4
 295 000a FFF7FEFF 		bl	isr_TC_SetVector
 296              	.LVL15:
 113:Generated_Source\PSoC5/isr_TC.c **** 
 297              		.loc 1 113 0
 298 000e 0720     		movs	r0, #7
 299 0010 FFF7FEFF 		bl	isr_TC_SetPriority
 300              	.LVL16:
 116:Generated_Source\PSoC5/isr_TC.c **** }
 301              		.loc 1 116 0
 302 0014 FFF7FEFF 		bl	isr_TC_Enable
 303              	.LVL17:
 304 0018 10BD     		pop	{r4, pc}
 305              		.cfi_endproc
 306              	.LFE64:
 307              		.size	isr_TC_StartEx, .-isr_TC_StartEx
 308 001a 00BF     		.section	.text.isr_TC_Stop,"ax",%progbits
 309              		.align	2
 310              		.global	isr_TC_Stop
 311              		.thumb
 312              		.thumb_func
 313              		.type	isr_TC_Stop, %function
 314              	isr_TC_Stop:
 315              	.LFB65:
 135:Generated_Source\PSoC5/isr_TC.c ****     /* Disable this interrupt. */
 316              		.loc 1 135 0
 317              		.cfi_startproc
 318              		@ args = 0, pretend = 0, frame = 0
 319              		@ frame_needed = 0, uses_anonymous_args = 0
 320 0000 08B5     		push	{r3, lr}
ARM GAS  C:\Users\smiy200\AppData\Local\Temp\ccj7N4EX.s 			page 13


 321              		.cfi_def_cfa_offset 8
 322              		.cfi_offset 3, -8
 323              		.cfi_offset 14, -4
 137:Generated_Source\PSoC5/isr_TC.c **** 
 324              		.loc 1 137 0
 325 0002 FFF7FEFF 		bl	isr_TC_Disable
 326              	.LVL18:
 140:Generated_Source\PSoC5/isr_TC.c **** }
 327              		.loc 1 140 0
 328 0006 0248     		ldr	r0, .L32
 329 0008 FFF7FEFF 		bl	isr_TC_SetVector
 330              	.LVL19:
 331 000c 08BD     		pop	{r3, pc}
 332              	.L33:
 333 000e 00BF     		.align	2
 334              	.L32:
 335 0010 00000000 		.word	IntDefaultHandler
 336              		.cfi_endproc
 337              	.LFE65:
 338              		.size	isr_TC_Stop, .-isr_TC_Stop
 339              		.section	.text.isr_TC_SetPending,"ax",%progbits
 340              		.align	2
 341              		.global	isr_TC_SetPending
 342              		.thumb
 343              		.thumb_func
 344              		.type	isr_TC_SetPending, %function
 345              	isr_TC_SetPending:
 346              	.LFB74:
 354:Generated_Source\PSoC5/isr_TC.c **** }
 355:Generated_Source\PSoC5/isr_TC.c **** 
 356:Generated_Source\PSoC5/isr_TC.c **** 
 357:Generated_Source\PSoC5/isr_TC.c **** /*******************************************************************************
 358:Generated_Source\PSoC5/isr_TC.c **** * Function Name: isr_TC_SetPending
 359:Generated_Source\PSoC5/isr_TC.c **** ********************************************************************************
 360:Generated_Source\PSoC5/isr_TC.c **** *
 361:Generated_Source\PSoC5/isr_TC.c **** * Summary:
 362:Generated_Source\PSoC5/isr_TC.c **** *   Causes the Interrupt to enter the pending state, a software method of
 363:Generated_Source\PSoC5/isr_TC.c **** *   generating the interrupt.
 364:Generated_Source\PSoC5/isr_TC.c **** *
 365:Generated_Source\PSoC5/isr_TC.c **** * Parameters:
 366:Generated_Source\PSoC5/isr_TC.c **** *   None
 367:Generated_Source\PSoC5/isr_TC.c **** *
 368:Generated_Source\PSoC5/isr_TC.c **** * Return:
 369:Generated_Source\PSoC5/isr_TC.c **** *   None
 370:Generated_Source\PSoC5/isr_TC.c **** *
 371:Generated_Source\PSoC5/isr_TC.c **** * Side Effects:
 372:Generated_Source\PSoC5/isr_TC.c **** *   If interrupts are enabled and the interrupt is set up properly, the ISR is
 373:Generated_Source\PSoC5/isr_TC.c **** *   entered (depending on the priority of this interrupt and other pending 
 374:Generated_Source\PSoC5/isr_TC.c **** *   interrupts).
 375:Generated_Source\PSoC5/isr_TC.c **** *
 376:Generated_Source\PSoC5/isr_TC.c **** *******************************************************************************/
 377:Generated_Source\PSoC5/isr_TC.c **** void isr_TC_SetPending(void)
 378:Generated_Source\PSoC5/isr_TC.c **** {
 347              		.loc 1 378 0
 348              		.cfi_startproc
 349              		@ args = 0, pretend = 0, frame = 0
 350              		@ frame_needed = 0, uses_anonymous_args = 0
ARM GAS  C:\Users\smiy200\AppData\Local\Temp\ccj7N4EX.s 			page 14


 351              		@ link register save eliminated.
 379:Generated_Source\PSoC5/isr_TC.c ****     *isr_TC_INTC_SET_PD = isr_TC__INTC_MASK;
 352              		.loc 1 379 0
 353 0000 0122     		movs	r2, #1
 354 0002 014B     		ldr	r3, .L35
 355 0004 1A60     		str	r2, [r3]
 356 0006 7047     		bx	lr
 357              	.L36:
 358              		.align	2
 359              	.L35:
 360 0008 00E200E0 		.word	-536813056
 361              		.cfi_endproc
 362              	.LFE74:
 363              		.size	isr_TC_SetPending, .-isr_TC_SetPending
 364              		.section	.text.isr_TC_ClearPending,"ax",%progbits
 365              		.align	2
 366              		.global	isr_TC_ClearPending
 367              		.thumb
 368              		.thumb_func
 369              		.type	isr_TC_ClearPending, %function
 370              	isr_TC_ClearPending:
 371              	.LFB75:
 380:Generated_Source\PSoC5/isr_TC.c **** }
 381:Generated_Source\PSoC5/isr_TC.c **** 
 382:Generated_Source\PSoC5/isr_TC.c **** 
 383:Generated_Source\PSoC5/isr_TC.c **** /*******************************************************************************
 384:Generated_Source\PSoC5/isr_TC.c **** * Function Name: isr_TC_ClearPending
 385:Generated_Source\PSoC5/isr_TC.c **** ********************************************************************************
 386:Generated_Source\PSoC5/isr_TC.c **** *
 387:Generated_Source\PSoC5/isr_TC.c **** * Summary:
 388:Generated_Source\PSoC5/isr_TC.c **** *   Clears a pending interrupt in the interrupt controller.
 389:Generated_Source\PSoC5/isr_TC.c **** *
 390:Generated_Source\PSoC5/isr_TC.c **** *   Note Some interrupt sources are clear-on-read and require the block 
 391:Generated_Source\PSoC5/isr_TC.c **** *   interrupt/status register to be read/cleared with the appropriate block API 
 392:Generated_Source\PSoC5/isr_TC.c **** *   (GPIO, UART, and so on). Otherwise the ISR will continue to remain in 
 393:Generated_Source\PSoC5/isr_TC.c **** *   pending state even though the interrupt itself is cleared using this API.
 394:Generated_Source\PSoC5/isr_TC.c **** *
 395:Generated_Source\PSoC5/isr_TC.c **** * Parameters:
 396:Generated_Source\PSoC5/isr_TC.c **** *   None
 397:Generated_Source\PSoC5/isr_TC.c **** *
 398:Generated_Source\PSoC5/isr_TC.c **** * Return:
 399:Generated_Source\PSoC5/isr_TC.c **** *   None
 400:Generated_Source\PSoC5/isr_TC.c **** *
 401:Generated_Source\PSoC5/isr_TC.c **** *******************************************************************************/
 402:Generated_Source\PSoC5/isr_TC.c **** void isr_TC_ClearPending(void)
 403:Generated_Source\PSoC5/isr_TC.c **** {
 372              		.loc 1 403 0
 373              		.cfi_startproc
 374              		@ args = 0, pretend = 0, frame = 0
 375              		@ frame_needed = 0, uses_anonymous_args = 0
 376              		@ link register save eliminated.
 404:Generated_Source\PSoC5/isr_TC.c ****     *isr_TC_INTC_CLR_PD = isr_TC__INTC_MASK;
 377              		.loc 1 404 0
 378 0000 0122     		movs	r2, #1
 379 0002 014B     		ldr	r3, .L38
 380 0004 1A60     		str	r2, [r3]
 381 0006 7047     		bx	lr
ARM GAS  C:\Users\smiy200\AppData\Local\Temp\ccj7N4EX.s 			page 15


 382              	.L39:
 383              		.align	2
 384              	.L38:
 385 0008 80E200E0 		.word	-536812928
 386              		.cfi_endproc
 387              	.LFE75:
 388              		.size	isr_TC_ClearPending, .-isr_TC_ClearPending
 389              		.text
 390              	.Letext0:
 391              		.file 2 "c:\\program files (x86)\\cypress\\psoc creator\\4.2\\psoc creator\\import\\gnu\\arm\\5.4.
 392              		.file 3 "c:\\program files (x86)\\cypress\\psoc creator\\4.2\\psoc creator\\import\\gnu\\arm\\5.4.
 393              		.file 4 "Generated_Source\\PSoC5/cytypes.h"
 394              		.file 5 "Generated_Source\\PSoC5/LED.h"
 395              		.file 6 "Generated_Source\\PSoC5/core_cm3.h"