ARM GAS  C:\Users\smiy200\AppData\Local\Temp\ccBu9IXR.s 			page 1


   1              		.syntax unified
   2              		.cpu cortex-m3
   3              		.fpu softvfp
   4              		.eabi_attribute 20, 1
   5              		.eabi_attribute 21, 1
   6              		.eabi_attribute 23, 3
   7              		.eabi_attribute 24, 1
   8              		.eabi_attribute 25, 1
   9              		.eabi_attribute 26, 1
  10              		.eabi_attribute 30, 6
  11              		.eabi_attribute 34, 1
  12              		.eabi_attribute 18, 4
  13              		.thumb
  14              		.syntax unified
  15              		.file	"bigBrainMovement.c"
  16              		.text
  17              	.Ltext0:
  18              		.cfi_sections	.debug_frame
  19              		.bss
  20              		.align	2
  21              	nodesArray:
  22 0000 00000000 		.space	9120
  22      00000000 
  22      00000000 
  22      00000000 
  22      00000000 
  23              		.align	2
  24              	size:
  25 23a0 00000000 		.space	4
  26              		.comm	arrayPointer,4,4
  27              		.comm	result,4000,4
  28              		.section	.text.calculateDirection,"ax",%progbits
  29              		.align	2
  30              		.global	calculateDirection
  31              		.thumb
  32              		.thumb_func
  33              		.type	calculateDirection, %function
  34              	calculateDirection:
  35              	.LFB1:
  36              		.file 1 "bigBrainMovement.c"
   1:bigBrainMovement.c **** /******************************************************************************
   2:bigBrainMovement.c **** 
   3:bigBrainMovement.c **** Welcome to GDB Online.
   4:bigBrainMovement.c **** GDB online is an online compiler and debugger tool for C, C++, Python, PHP, Ruby, 
   5:bigBrainMovement.c **** C#, OCaml, VB, Perl, Swift, Prolog, Javascript, Pascal, HTML, CSS, JS
   6:bigBrainMovement.c **** Code, Compile, Run and Debug online from anywhere in world.
   7:bigBrainMovement.c **** 
   8:bigBrainMovement.c **** *******************************************************************************/
   9:bigBrainMovement.c **** #include <stdio.h>
  10:bigBrainMovement.c **** #include "astar.h"
  11:bigBrainMovement.c **** #include "bigBrainMovement.h"
  12:bigBrainMovement.c **** int arrayPointer;
  13:bigBrainMovement.c **** volatile static int size;
  14:bigBrainMovement.c **** int result[1000];
  15:bigBrainMovement.c **** enum direction{NORTH, SOUTH, WEST, EAST};
  16:bigBrainMovement.c **** 
  17:bigBrainMovement.c ****     
ARM GAS  C:\Users\smiy200\AppData\Local\Temp\ccBu9IXR.s 			page 2


  18:bigBrainMovement.c ****     // Pair coordinate;
  19:bigBrainMovement.c ****     // coordinate.pairRow = 9;
  20:bigBrainMovement.c ****     // coordinate.pairCol = 0;
  21:bigBrainMovement.c ****     // finalArray[2]= coordinate;
  22:bigBrainMovement.c ****     
  23:bigBrainMovement.c ****     
  24:bigBrainMovement.c **** 
  25:bigBrainMovement.c ****     
  26:bigBrainMovement.c ****     //column == x, row == y
  27:bigBrainMovement.c ****    
  28:bigBrainMovement.c ****  
  29:bigBrainMovement.c **** 
  30:bigBrainMovement.c ****     
  31:bigBrainMovement.c **** enum direction calculateDirection(int currentCol, int currentRow, int nextCol, int nextRow) {
  37              		.loc 1 31 0
  38              		.cfi_startproc
  39              		@ args = 0, pretend = 0, frame = 16
  40              		@ frame_needed = 1, uses_anonymous_args = 0
  41              		@ link register save eliminated.
  42 0000 80B4     		push	{r7}
  43              		.cfi_def_cfa_offset 4
  44              		.cfi_offset 7, -4
  45 0002 85B0     		sub	sp, sp, #20
  46              		.cfi_def_cfa_offset 24
  47 0004 00AF     		add	r7, sp, #0
  48              		.cfi_def_cfa_register 7
  49 0006 F860     		str	r0, [r7, #12]
  50 0008 B960     		str	r1, [r7, #8]
  51 000a 7A60     		str	r2, [r7, #4]
  52 000c 3B60     		str	r3, [r7]
  32:bigBrainMovement.c ****     
  33:bigBrainMovement.c ****     
  34:bigBrainMovement.c ****     if ((nextCol == currentCol + 1) && (nextRow == currentRow)) {
  53              		.loc 1 34 0
  54 000e FB68     		ldr	r3, [r7, #12]
  55 0010 5A1C     		adds	r2, r3, #1
  56 0012 7B68     		ldr	r3, [r7, #4]
  57 0014 9A42     		cmp	r2, r3
  58 0016 05D1     		bne	.L2
  59              		.loc 1 34 0 is_stmt 0 discriminator 1
  60 0018 3A68     		ldr	r2, [r7]
  61 001a BB68     		ldr	r3, [r7, #8]
  62 001c 9A42     		cmp	r2, r3
  63 001e 01D1     		bne	.L2
  35:bigBrainMovement.c ****         //must be going EAST
  36:bigBrainMovement.c ****         return EAST;
  64              		.loc 1 36 0 is_stmt 1
  65 0020 0323     		movs	r3, #3
  66 0022 20E0     		b	.L1
  67              	.L2:
  37:bigBrainMovement.c ****     } else if ((nextCol == currentCol - 1) && (nextRow == currentRow)) {
  68              		.loc 1 37 0
  69 0024 FB68     		ldr	r3, [r7, #12]
  70 0026 5A1E     		subs	r2, r3, #1
  71 0028 7B68     		ldr	r3, [r7, #4]
  72 002a 9A42     		cmp	r2, r3
  73 002c 05D1     		bne	.L4
ARM GAS  C:\Users\smiy200\AppData\Local\Temp\ccBu9IXR.s 			page 3


  74              		.loc 1 37 0 is_stmt 0 discriminator 1
  75 002e 3A68     		ldr	r2, [r7]
  76 0030 BB68     		ldr	r3, [r7, #8]
  77 0032 9A42     		cmp	r2, r3
  78 0034 01D1     		bne	.L4
  38:bigBrainMovement.c ****         //must be going WEST
  39:bigBrainMovement.c ****         return WEST;
  79              		.loc 1 39 0 is_stmt 1
  80 0036 0223     		movs	r3, #2
  81 0038 15E0     		b	.L1
  82              	.L4:
  40:bigBrainMovement.c ****     } else if ((nextCol == currentCol) && (nextRow == currentRow + 1)) {
  83              		.loc 1 40 0
  84 003a 7A68     		ldr	r2, [r7, #4]
  85 003c FB68     		ldr	r3, [r7, #12]
  86 003e 9A42     		cmp	r2, r3
  87 0040 06D1     		bne	.L5
  88              		.loc 1 40 0 is_stmt 0 discriminator 1
  89 0042 BB68     		ldr	r3, [r7, #8]
  90 0044 5A1C     		adds	r2, r3, #1
  91 0046 3B68     		ldr	r3, [r7]
  92 0048 9A42     		cmp	r2, r3
  93 004a 01D1     		bne	.L5
  41:bigBrainMovement.c ****         //must be going NORTH
  42:bigBrainMovement.c ****         return SOUTH;
  94              		.loc 1 42 0 is_stmt 1
  95 004c 0123     		movs	r3, #1
  96 004e 0AE0     		b	.L1
  97              	.L5:
  43:bigBrainMovement.c ****     } else if ((nextCol == currentCol) && (nextRow == currentRow - 1)) {
  98              		.loc 1 43 0
  99 0050 7A68     		ldr	r2, [r7, #4]
 100 0052 FB68     		ldr	r3, [r7, #12]
 101 0054 9A42     		cmp	r2, r3
 102 0056 06D1     		bne	.L6
 103              		.loc 1 43 0 is_stmt 0 discriminator 1
 104 0058 BB68     		ldr	r3, [r7, #8]
 105 005a 5A1E     		subs	r2, r3, #1
 106 005c 3B68     		ldr	r3, [r7]
 107 005e 9A42     		cmp	r2, r3
 108 0060 01D1     		bne	.L6
  44:bigBrainMovement.c ****         //must be going SOUTH
  45:bigBrainMovement.c ****         return NORTH;
 109              		.loc 1 45 0 is_stmt 1
 110 0062 0023     		movs	r3, #0
 111 0064 FFE7     		b	.L1
 112              	.L6:
 113              	.L1:
  46:bigBrainMovement.c ****     }
  47:bigBrainMovement.c **** }
 114              		.loc 1 47 0
 115 0066 1846     		mov	r0, r3
 116 0068 1437     		adds	r7, r7, #20
 117              		.cfi_def_cfa_offset 4
 118 006a BD46     		mov	sp, r7
 119              		.cfi_def_cfa_register 13
 120              		@ sp needed
ARM GAS  C:\Users\smiy200\AppData\Local\Temp\ccBu9IXR.s 			page 4


 121 006c 80BC     		pop	{r7}
 122              		.cfi_restore 7
 123              		.cfi_def_cfa_offset 0
 124 006e 7047     		bx	lr
 125              		.cfi_endproc
 126              	.LFE1:
 127              		.size	calculateDirection, .-calculateDirection
 128              		.section	.text.findDirections,"ax",%progbits
 129              		.align	2
 130              		.global	findDirections
 131              		.thumb
 132              		.thumb_func
 133              		.type	findDirections, %function
 134              	findDirections:
 135              	.LFB2:
  48:bigBrainMovement.c **** 
  49:bigBrainMovement.c **** void findDirections()       //////////main
  50:bigBrainMovement.c **** {
 136              		.loc 1 50 0
 137              		.cfi_startproc
 138              		@ args = 0, pretend = 0, frame = 24
 139              		@ frame_needed = 1, uses_anonymous_args = 0
 140 0000 80B5     		push	{r7, lr}
 141              		.cfi_def_cfa_offset 8
 142              		.cfi_offset 7, -8
 143              		.cfi_offset 14, -4
 144 0002 86B0     		sub	sp, sp, #24
 145              		.cfi_def_cfa_offset 32
 146 0004 00AF     		add	r7, sp, #0
 147              		.cfi_def_cfa_register 7
  51:bigBrainMovement.c ****     //declare arraypointer
  52:bigBrainMovement.c ****     arrayPointer = 0;
 148              		.loc 1 52 0
 149 0006 704B     		ldr	r3, .L25
 150 0008 0022     		movs	r2, #0
 151 000a 1A60     		str	r2, [r3]
  53:bigBrainMovement.c ****     //declare result array
  54:bigBrainMovement.c ****     size= finalArrayIndex;
 152              		.loc 1 54 0
 153 000c 6F4B     		ldr	r3, .L25+4
 154 000e 1B68     		ldr	r3, [r3]
 155 0010 6F4A     		ldr	r2, .L25+8
 156 0012 1360     		str	r3, [r2]
  55:bigBrainMovement.c ****     //result[size];
  56:bigBrainMovement.c **** 
  57:bigBrainMovement.c ****     
  58:bigBrainMovement.c ****     //current coordinate
  59:bigBrainMovement.c ****         int currentCol = finalPath[arrayPointer].pair.pairCol;
 157              		.loc 1 59 0
 158 0014 6C4B     		ldr	r3, .L25
 159 0016 1B68     		ldr	r3, [r3]
 160 0018 6E4A     		ldr	r2, .L25+12
 161 001a DB00     		lsls	r3, r3, #3
 162 001c 1344     		add	r3, r3, r2
 163 001e 5B68     		ldr	r3, [r3, #4]
 164 0020 FB60     		str	r3, [r7, #12]
  60:bigBrainMovement.c ****         int currentRow = finalPath[arrayPointer].pair.pairRow;
ARM GAS  C:\Users\smiy200\AppData\Local\Temp\ccBu9IXR.s 			page 5


 165              		.loc 1 60 0
 166 0022 694B     		ldr	r3, .L25
 167 0024 1B68     		ldr	r3, [r3]
 168 0026 6B4A     		ldr	r2, .L25+12
 169 0028 52F83330 		ldr	r3, [r2, r3, lsl #3]
 170 002c BB60     		str	r3, [r7, #8]
  61:bigBrainMovement.c ****     
  62:bigBrainMovement.c ****      //next coordinate
  63:bigBrainMovement.c ****         int nextCol = finalPath[arrayPointer + 1].pair.pairCol;
 171              		.loc 1 63 0
 172 002e 664B     		ldr	r3, .L25
 173 0030 1B68     		ldr	r3, [r3]
 174 0032 0133     		adds	r3, r3, #1
 175 0034 674A     		ldr	r2, .L25+12
 176 0036 DB00     		lsls	r3, r3, #3
 177 0038 1344     		add	r3, r3, r2
 178 003a 5B68     		ldr	r3, [r3, #4]
 179 003c 7B60     		str	r3, [r7, #4]
  64:bigBrainMovement.c ****         int nextRow = finalPath[arrayPointer + 1].pair.pairRow;
 180              		.loc 1 64 0
 181 003e 624B     		ldr	r3, .L25
 182 0040 1B68     		ldr	r3, [r3]
 183 0042 0133     		adds	r3, r3, #1
 184 0044 634A     		ldr	r2, .L25+12
 185 0046 52F83330 		ldr	r3, [r2, r3, lsl #3]
 186 004a 3B60     		str	r3, [r7]
  65:bigBrainMovement.c ****     
  66:bigBrainMovement.c ****     
  67:bigBrainMovement.c **** 
  68:bigBrainMovement.c ****     //calculate initial direction
  69:bigBrainMovement.c ****     enum direction dir = calculateDirection(currentCol, currentRow, nextCol, nextRow);
 187              		.loc 1 69 0
 188 004c 3B68     		ldr	r3, [r7]
 189 004e 7A68     		ldr	r2, [r7, #4]
 190 0050 B968     		ldr	r1, [r7, #8]
 191 0052 F868     		ldr	r0, [r7, #12]
 192 0054 FFF7FEFF 		bl	calculateDirection
 193 0058 0346     		mov	r3, r0
 194 005a FB75     		strb	r3, [r7, #23]
 195              	.LBB2:
  70:bigBrainMovement.c ****     
  71:bigBrainMovement.c ****     for (int i = 0;i<size-1;i++) {
 196              		.loc 1 71 0
 197 005c 0023     		movs	r3, #0
 198 005e 3B61     		str	r3, [r7, #16]
 199 0060 A7E0     		b	.L8
 200              	.L24:
  72:bigBrainMovement.c ****         
  73:bigBrainMovement.c ****         currentCol = finalPath[arrayPointer].pair.pairCol;
 201              		.loc 1 73 0
 202 0062 594B     		ldr	r3, .L25
 203 0064 1B68     		ldr	r3, [r3]
 204 0066 5B4A     		ldr	r2, .L25+12
 205 0068 DB00     		lsls	r3, r3, #3
 206 006a 1344     		add	r3, r3, r2
 207 006c 5B68     		ldr	r3, [r3, #4]
 208 006e FB60     		str	r3, [r7, #12]
ARM GAS  C:\Users\smiy200\AppData\Local\Temp\ccBu9IXR.s 			page 6


  74:bigBrainMovement.c ****         currentRow = finalPath[arrayPointer].pair.pairRow;
 209              		.loc 1 74 0
 210 0070 554B     		ldr	r3, .L25
 211 0072 1B68     		ldr	r3, [r3]
 212 0074 574A     		ldr	r2, .L25+12
 213 0076 52F83330 		ldr	r3, [r2, r3, lsl #3]
 214 007a BB60     		str	r3, [r7, #8]
  75:bigBrainMovement.c ****     
  76:bigBrainMovement.c ****      //next coordinate
  77:bigBrainMovement.c ****         nextCol = finalPath[arrayPointer + 1].pair.pairCol;
 215              		.loc 1 77 0
 216 007c 524B     		ldr	r3, .L25
 217 007e 1B68     		ldr	r3, [r3]
 218 0080 0133     		adds	r3, r3, #1
 219 0082 544A     		ldr	r2, .L25+12
 220 0084 DB00     		lsls	r3, r3, #3
 221 0086 1344     		add	r3, r3, r2
 222 0088 5B68     		ldr	r3, [r3, #4]
 223 008a 7B60     		str	r3, [r7, #4]
  78:bigBrainMovement.c ****         nextRow = finalPath[arrayPointer + 1].pair.pairRow;
 224              		.loc 1 78 0
 225 008c 4E4B     		ldr	r3, .L25
 226 008e 1B68     		ldr	r3, [r3]
 227 0090 0133     		adds	r3, r3, #1
 228 0092 504A     		ldr	r2, .L25+12
 229 0094 52F83330 		ldr	r3, [r2, r3, lsl #3]
 230 0098 3B60     		str	r3, [r7]
  79:bigBrainMovement.c ****         
  80:bigBrainMovement.c ****         
  81:bigBrainMovement.c ****         if (dir == NORTH) {
 231              		.loc 1 81 0
 232 009a FB7D     		ldrb	r3, [r7, #23]	@ zero_extendqisi2
 233 009c 002B     		cmp	r3, #0
 234 009e 1CD1     		bne	.L9
  82:bigBrainMovement.c ****         //if col change postively turn right, if col change negatively turn left.
  83:bigBrainMovement.c ****             if (nextCol > currentCol) {
 235              		.loc 1 83 0
 236 00a0 7A68     		ldr	r2, [r7, #4]
 237 00a2 FB68     		ldr	r3, [r7, #12]
 238 00a4 9A42     		cmp	r2, r3
 239 00a6 06DD     		ble	.L10
  84:bigBrainMovement.c ****                 //record right turn
  85:bigBrainMovement.c ****                 result[arrayPointer] = 2;
 240              		.loc 1 85 0
 241 00a8 474B     		ldr	r3, .L25
 242 00aa 1B68     		ldr	r3, [r3]
 243 00ac 4A4A     		ldr	r2, .L25+16
 244 00ae 0221     		movs	r1, #2
 245 00b0 42F82310 		str	r1, [r2, r3, lsl #2]
 246 00b4 6DE0     		b	.L13
 247              	.L10:
  86:bigBrainMovement.c ****                 
  87:bigBrainMovement.c ****             } else if (nextCol < currentCol) {
 248              		.loc 1 87 0
 249 00b6 7A68     		ldr	r2, [r7, #4]
 250 00b8 FB68     		ldr	r3, [r7, #12]
 251 00ba 9A42     		cmp	r2, r3
ARM GAS  C:\Users\smiy200\AppData\Local\Temp\ccBu9IXR.s 			page 7


 252 00bc 06DA     		bge	.L12
  88:bigBrainMovement.c ****                 //record left turn
  89:bigBrainMovement.c ****                 result[arrayPointer] = 0;
 253              		.loc 1 89 0
 254 00be 424B     		ldr	r3, .L25
 255 00c0 1B68     		ldr	r3, [r3]
 256 00c2 454A     		ldr	r2, .L25+16
 257 00c4 0021     		movs	r1, #0
 258 00c6 42F82310 		str	r1, [r2, r3, lsl #2]
 259 00ca 62E0     		b	.L13
 260              	.L12:
  90:bigBrainMovement.c ****             } else {
  91:bigBrainMovement.c ****                 //record straight
  92:bigBrainMovement.c ****                 result[arrayPointer] = 1;
 261              		.loc 1 92 0
 262 00cc 3E4B     		ldr	r3, .L25
 263 00ce 1B68     		ldr	r3, [r3]
 264 00d0 414A     		ldr	r2, .L25+16
 265 00d2 0121     		movs	r1, #1
 266 00d4 42F82310 		str	r1, [r2, r3, lsl #2]
 267 00d8 5BE0     		b	.L13
 268              	.L9:
  93:bigBrainMovement.c ****             }
  94:bigBrainMovement.c ****             
  95:bigBrainMovement.c ****         } else if (dir == SOUTH) {
 269              		.loc 1 95 0
 270 00da FB7D     		ldrb	r3, [r7, #23]	@ zero_extendqisi2
 271 00dc 012B     		cmp	r3, #1
 272 00de 1CD1     		bne	.L14
  96:bigBrainMovement.c ****             //if col change postively turn left, if col change negatively turn right.
  97:bigBrainMovement.c ****             if (nextCol > currentCol) {
 273              		.loc 1 97 0
 274 00e0 7A68     		ldr	r2, [r7, #4]
 275 00e2 FB68     		ldr	r3, [r7, #12]
 276 00e4 9A42     		cmp	r2, r3
 277 00e6 06DD     		ble	.L15
  98:bigBrainMovement.c ****                 //record left turn
  99:bigBrainMovement.c ****                 result[arrayPointer] = 0;
 278              		.loc 1 99 0
 279 00e8 374B     		ldr	r3, .L25
 280 00ea 1B68     		ldr	r3, [r3]
 281 00ec 3A4A     		ldr	r2, .L25+16
 282 00ee 0021     		movs	r1, #0
 283 00f0 42F82310 		str	r1, [r2, r3, lsl #2]
 284 00f4 4DE0     		b	.L13
 285              	.L15:
 100:bigBrainMovement.c ****                 
 101:bigBrainMovement.c ****             } else if (nextCol < currentCol) {
 286              		.loc 1 101 0
 287 00f6 7A68     		ldr	r2, [r7, #4]
 288 00f8 FB68     		ldr	r3, [r7, #12]
 289 00fa 9A42     		cmp	r2, r3
 290 00fc 06DA     		bge	.L17
 102:bigBrainMovement.c ****                 //record right turn
 103:bigBrainMovement.c ****                 result[arrayPointer] = 2;
 291              		.loc 1 103 0
 292 00fe 324B     		ldr	r3, .L25
ARM GAS  C:\Users\smiy200\AppData\Local\Temp\ccBu9IXR.s 			page 8


 293 0100 1B68     		ldr	r3, [r3]
 294 0102 354A     		ldr	r2, .L25+16
 295 0104 0221     		movs	r1, #2
 296 0106 42F82310 		str	r1, [r2, r3, lsl #2]
 297 010a 42E0     		b	.L13
 298              	.L17:
 104:bigBrainMovement.c ****             } else {
 105:bigBrainMovement.c ****                 //record straight
 106:bigBrainMovement.c ****                 result[arrayPointer] = 1;
 299              		.loc 1 106 0
 300 010c 2E4B     		ldr	r3, .L25
 301 010e 1B68     		ldr	r3, [r3]
 302 0110 314A     		ldr	r2, .L25+16
 303 0112 0121     		movs	r1, #1
 304 0114 42F82310 		str	r1, [r2, r3, lsl #2]
 305 0118 3BE0     		b	.L13
 306              	.L14:
 107:bigBrainMovement.c ****             }
 108:bigBrainMovement.c ****             
 109:bigBrainMovement.c ****         } else if (dir == WEST) {
 307              		.loc 1 109 0
 308 011a FB7D     		ldrb	r3, [r7, #23]	@ zero_extendqisi2
 309 011c 022B     		cmp	r3, #2
 310 011e 1CD1     		bne	.L18
 110:bigBrainMovement.c ****             //if row change negatively turn right, if row change positively turn left.
 111:bigBrainMovement.c ****             if (nextRow > currentRow) {
 311              		.loc 1 111 0
 312 0120 3A68     		ldr	r2, [r7]
 313 0122 BB68     		ldr	r3, [r7, #8]
 314 0124 9A42     		cmp	r2, r3
 315 0126 06DD     		ble	.L19
 112:bigBrainMovement.c ****                 //record left turn
 113:bigBrainMovement.c ****                 result[arrayPointer] = 0;
 316              		.loc 1 113 0
 317 0128 274B     		ldr	r3, .L25
 318 012a 1B68     		ldr	r3, [r3]
 319 012c 2A4A     		ldr	r2, .L25+16
 320 012e 0021     		movs	r1, #0
 321 0130 42F82310 		str	r1, [r2, r3, lsl #2]
 322 0134 2DE0     		b	.L13
 323              	.L19:
 114:bigBrainMovement.c ****                 
 115:bigBrainMovement.c ****             } else if (nextRow < currentRow) {
 324              		.loc 1 115 0
 325 0136 3A68     		ldr	r2, [r7]
 326 0138 BB68     		ldr	r3, [r7, #8]
 327 013a 9A42     		cmp	r2, r3
 328 013c 06DA     		bge	.L21
 116:bigBrainMovement.c ****                 //record right turn
 117:bigBrainMovement.c ****                 result[arrayPointer] = 2;
 329              		.loc 1 117 0
 330 013e 224B     		ldr	r3, .L25
 331 0140 1B68     		ldr	r3, [r3]
 332 0142 254A     		ldr	r2, .L25+16
 333 0144 0221     		movs	r1, #2
 334 0146 42F82310 		str	r1, [r2, r3, lsl #2]
 335 014a 22E0     		b	.L13
ARM GAS  C:\Users\smiy200\AppData\Local\Temp\ccBu9IXR.s 			page 9


 336              	.L21:
 118:bigBrainMovement.c ****             } else {
 119:bigBrainMovement.c ****                 //record straight
 120:bigBrainMovement.c ****                 result[arrayPointer] = 1;
 337              		.loc 1 120 0
 338 014c 1E4B     		ldr	r3, .L25
 339 014e 1B68     		ldr	r3, [r3]
 340 0150 214A     		ldr	r2, .L25+16
 341 0152 0121     		movs	r1, #1
 342 0154 42F82310 		str	r1, [r2, r3, lsl #2]
 343 0158 1BE0     		b	.L13
 344              	.L18:
 121:bigBrainMovement.c ****             }
 122:bigBrainMovement.c ****         } else {
 123:bigBrainMovement.c ****             //if row change negatively turn left, if row change positively turn right.
 124:bigBrainMovement.c ****             if (nextRow > currentRow) {
 345              		.loc 1 124 0
 346 015a 3A68     		ldr	r2, [r7]
 347 015c BB68     		ldr	r3, [r7, #8]
 348 015e 9A42     		cmp	r2, r3
 349 0160 06DD     		ble	.L22
 125:bigBrainMovement.c ****                 //record right turn
 126:bigBrainMovement.c ****                 result[arrayPointer] = 2;
 350              		.loc 1 126 0
 351 0162 194B     		ldr	r3, .L25
 352 0164 1B68     		ldr	r3, [r3]
 353 0166 1C4A     		ldr	r2, .L25+16
 354 0168 0221     		movs	r1, #2
 355 016a 42F82310 		str	r1, [r2, r3, lsl #2]
 356 016e 10E0     		b	.L13
 357              	.L22:
 127:bigBrainMovement.c ****                 
 128:bigBrainMovement.c ****             } else if (nextRow < currentRow) {
 358              		.loc 1 128 0
 359 0170 3A68     		ldr	r2, [r7]
 360 0172 BB68     		ldr	r3, [r7, #8]
 361 0174 9A42     		cmp	r2, r3
 362 0176 06DA     		bge	.L23
 129:bigBrainMovement.c ****                 //record left turn
 130:bigBrainMovement.c ****                 result[arrayPointer] = 0;
 363              		.loc 1 130 0
 364 0178 134B     		ldr	r3, .L25
 365 017a 1B68     		ldr	r3, [r3]
 366 017c 164A     		ldr	r2, .L25+16
 367 017e 0021     		movs	r1, #0
 368 0180 42F82310 		str	r1, [r2, r3, lsl #2]
 369 0184 05E0     		b	.L13
 370              	.L23:
 131:bigBrainMovement.c ****             } else {
 132:bigBrainMovement.c ****                 //record straight
 133:bigBrainMovement.c ****                 result[arrayPointer] = 1;
 371              		.loc 1 133 0
 372 0186 104B     		ldr	r3, .L25
 373 0188 1B68     		ldr	r3, [r3]
 374 018a 134A     		ldr	r2, .L25+16
 375 018c 0121     		movs	r1, #1
 376 018e 42F82310 		str	r1, [r2, r3, lsl #2]
ARM GAS  C:\Users\smiy200\AppData\Local\Temp\ccBu9IXR.s 			page 10


 377              	.L13:
 134:bigBrainMovement.c ****             }
 135:bigBrainMovement.c ****         }
 136:bigBrainMovement.c ****         
 137:bigBrainMovement.c ****         //recalculate direction vector for future coordinate
 138:bigBrainMovement.c ****         dir = calculateDirection(currentCol, currentRow, nextCol, nextRow);
 378              		.loc 1 138 0 discriminator 2
 379 0192 3B68     		ldr	r3, [r7]
 380 0194 7A68     		ldr	r2, [r7, #4]
 381 0196 B968     		ldr	r1, [r7, #8]
 382 0198 F868     		ldr	r0, [r7, #12]
 383 019a FFF7FEFF 		bl	calculateDirection
 384 019e 0346     		mov	r3, r0
 385 01a0 FB75     		strb	r3, [r7, #23]
 139:bigBrainMovement.c ****         
 140:bigBrainMovement.c ****         
 141:bigBrainMovement.c ****         arrayPointer++;
 386              		.loc 1 141 0 discriminator 2
 387 01a2 094B     		ldr	r3, .L25
 388 01a4 1B68     		ldr	r3, [r3]
 389 01a6 0133     		adds	r3, r3, #1
 390 01a8 074A     		ldr	r2, .L25
 391 01aa 1360     		str	r3, [r2]
  71:bigBrainMovement.c ****         
 392              		.loc 1 71 0 discriminator 2
 393 01ac 3B69     		ldr	r3, [r7, #16]
 394 01ae 0133     		adds	r3, r3, #1
 395 01b0 3B61     		str	r3, [r7, #16]
 396              	.L8:
  71:bigBrainMovement.c ****         
 397              		.loc 1 71 0 is_stmt 0 discriminator 1
 398 01b2 074B     		ldr	r3, .L25+8
 399 01b4 1B68     		ldr	r3, [r3]
 400 01b6 5A1E     		subs	r2, r3, #1
 401 01b8 3B69     		ldr	r3, [r7, #16]
 402 01ba 9A42     		cmp	r2, r3
 403 01bc 3FF751AF 		bgt	.L24
 404              	.LBE2:
 142:bigBrainMovement.c ****         
 143:bigBrainMovement.c ****     }
 144:bigBrainMovement.c ****     
 145:bigBrainMovement.c **** //    for (int i=0;i<size-1;i++) {
 146:bigBrainMovement.c **** //        //0 - left, 1 - straight, 2- right
 147:bigBrainMovement.c **** //        printf("%d", result[i]);
 148:bigBrainMovement.c **** //    }
 149:bigBrainMovement.c ****     
 150:bigBrainMovement.c **** }
 405              		.loc 1 150 0 is_stmt 1
 406 01c0 00BF     		nop
 407 01c2 1837     		adds	r7, r7, #24
 408              		.cfi_def_cfa_offset 8
 409 01c4 BD46     		mov	sp, r7
 410              		.cfi_def_cfa_register 13
 411              		@ sp needed
 412 01c6 80BD     		pop	{r7, pc}
 413              	.L26:
 414              		.align	2
ARM GAS  C:\Users\smiy200\AppData\Local\Temp\ccBu9IXR.s 			page 11


 415              	.L25:
 416 01c8 00000000 		.word	arrayPointer
 417 01cc 00000000 		.word	finalArrayIndex
 418 01d0 A0230000 		.word	size
 419 01d4 00000000 		.word	finalPath
 420 01d8 00000000 		.word	result
 421              		.cfi_endproc
 422              	.LFE2:
 423              		.size	findDirections, .-findDirections
 424              		.text
 425              	.Letext0:
 426              		.file 2 "astar.h"