ARM GAS  C:\Users\smiy200\AppData\Local\Temp\ccS34b3j.s 			page 1


   1              		.syntax unified
   2              		.cpu cortex-m3
   3              		.fpu softvfp
   4              		.eabi_attribute 20, 1
   5              		.eabi_attribute 21, 1
   6              		.eabi_attribute 23, 3
   7              		.eabi_attribute 24, 1
   8              		.eabi_attribute 25, 1
   9              		.eabi_attribute 26, 1
  10              		.eabi_attribute 30, 6
  11              		.eabi_attribute 34, 1
  12              		.eabi_attribute 18, 4
  13              		.thumb
  14              		.syntax unified
  15              		.file	"main.c"
  16              		.text
  17              	.Ltext0:
  18              		.cfi_sections	.debug_frame
  19              		.global	ts
  20              		.bss
  21              		.type	ts, %object
  22              		.size	ts, 1
  23              	ts:
  24 0000 00       		.space	1
  25              		.global	ts_enc
  26 0001 00       		.align	1
  27              		.type	ts_enc, %object
  28              		.size	ts_enc, 2
  29              	ts_enc:
  30 0002 0000     		.space	2
  31              		.global	ts_update
  32              		.align	1
  33              		.type	ts_update, %object
  34              		.size	ts_update, 2
  35              	ts_update:
  36 0004 0000     		.space	2
  37              		.global	ts_speed
  38              		.align	1
  39              		.type	ts_speed, %object
  40              		.size	ts_speed, 2
  41              	ts_speed:
  42 0006 0000     		.space	2
  43              		.global	ts_display
  44              		.align	1
  45              		.type	ts_display, %object
  46              		.size	ts_display, 2
  47              	ts_display:
  48 0008 0000     		.space	2
  49              		.global	flag_ts_enc
  50              		.type	flag_ts_enc, %object
  51              		.size	flag_ts_enc, 1
  52              	flag_ts_enc:
  53 000a 00       		.space	1
  54              		.global	flag_ts_update
  55              		.type	flag_ts_update, %object
  56              		.size	flag_ts_update, 1
  57              	flag_ts_update:
ARM GAS  C:\Users\smiy200\AppData\Local\Temp\ccS34b3j.s 			page 2


  58 000b 00       		.space	1
  59              		.global	flag_ts_speed
  60              		.type	flag_ts_speed, %object
  61              		.size	flag_ts_speed, 1
  62              	flag_ts_speed:
  63 000c 00       		.space	1
  64              		.global	flag_ts_display
  65              		.type	flag_ts_display, %object
  66              		.size	flag_ts_display, 1
  67              	flag_ts_display:
  68 000d 00       		.space	1
  69              		.global	flag_rx
  70              		.type	flag_rx, %object
  71              		.size	flag_rx, 1
  72              	flag_rx:
  73 000e 00       		.space	1
  74              		.global	flag_packet
  75              		.type	flag_packet, %object
  76              		.size	flag_packet, 1
  77              	flag_packet:
  78 000f 00       		.space	1
  79              		.global	flag_KB_string
  80              		.type	flag_KB_string, %object
  81              		.size	flag_KB_string, 1
  82              	flag_KB_string:
  83 0010 00       		.space	1
  84              		.global	dataready_flag
  85              		.type	dataready_flag, %object
  86              		.size	dataready_flag, 1
  87              	dataready_flag:
  88 0011 00       		.space	1
  89              		.global	flag_rf_transmission_active
  90              		.data
  91              		.type	flag_rf_transmission_active, %object
  92              		.size	flag_rf_transmission_active, 1
  93              	flag_rf_transmission_active:
  94 0000 0A       		.byte	10
  95              		.global	displaystring
  96 0001 000000   		.align	2
  97              		.type	displaystring, %object
  98              		.size	displaystring, 64
  99              	displaystring:
 100 0004 43533330 		.ascii	"CS301 2016\012\000"
 100      31203230 
 100      31360A00 
 101 0010 00000000 		.space	52
 101      00000000 
 101      00000000 
 101      00000000 
 101      00000000 
 102              		.comm	line,64,4
 103              		.comm	entry,64,4
 104              		.comm	usbBuffer,64,4
 105              		.comm	system_state,32,4
 106              		.section	.text.motorGoStraight,"ax",%progbits
 107              		.align	2
 108              		.global	motorGoStraight
ARM GAS  C:\Users\smiy200\AppData\Local\Temp\ccS34b3j.s 			page 3


 109              		.thumb
 110              		.thumb_func
 111              		.type	motorGoStraight, %function
 112              	motorGoStraight:
 113              	.LFB64:
 114              		.file 1 "main.c"
   1:main.c        **** /* ========================================
   2:main.c        ****  * Fully working code: 
   3:main.c        ****  * PWM      : 
   4:main.c        ****  * Encoder  : 
   5:main.c        ****  * ADC      :
   6:main.c        ****  * USB      : port displays speed and position.
   7:main.c        ****  * CMD: "PW xx"
   8:main.c        ****  * Copyright Univ of Auckland, 2016
   9:main.c        ****  * All Rights Reserved
  10:main.c        ****  * UNPUBLISHED, LICENSED SOFTWARE.
  11:main.c        ****  *
  12:main.c        ****  * CONFIDENTIAL AND PROPRIETARY INFORMATION
  13:main.c        ****  * WHICH IS THE PROPERTY OF Univ of Auckland.
  14:main.c        ****  *
  15:main.c        ****  * ========================================
  16:main.c        **** */
  17:main.c        **** #include <stdio.h>
  18:main.c        **** #include <stdbool.h>
  19:main.c        **** #include <string.h>
  20:main.c        **** #include <stdlib.h>
  21:main.c        **** #include <math.h>
  22:main.c        **** #include <project.h>
  23:main.c        **** //* ========================================
  24:main.c        **** #include "defines.h"
  25:main.c        **** #include "vars.h"
  26:main.c        **** #include "isr_eoc.h"
  27:main.c        **** //* ========================================
  28:main.c        **** void usbPutString(char *s);
  29:main.c        **** void usbPutChar(char c);
  30:main.c        **** void handle_usb();
  31:main.c        **** //* ========================================
  32:main.c        **** 
  33:main.c        **** 
  34:main.c        **** #define rota180 500 //turns
  35:main.c        **** #define rota90Left 250
  36:main.c        **** 
  37:main.c        **** #define moveSlow 50
  38:main.c        **** #define travelDist 326 // how
  39:main.c        **** #define Q1CHANNEL 3
  40:main.c        **** #define Q2CHANNEL 5 
  41:main.c        **** #define Q3CHANNEL 0
  42:main.c        **** #define Q4CHANNEL 1
  43:main.c        **** #define Q5CHANNEL 2
  44:main.c        **** #define Q6CHANNEL 4
  45:main.c        **** 
  46:main.c        **** CY_ISR_PROTO(isr_eoc_Interrupt_test);
  47:main.c        **** CY_ISR_PROTO(isr_motor_interrupt_speed);
  48:main.c        **** CY_ISR_PROTO(isr_TS_interrupt_sample);
  49:main.c        **** int convertSensorBinary();
  50:main.c        **** int convertBackBinary();
  51:main.c        **** 
ARM GAS  C:\Users\smiy200\AppData\Local\Temp\ccS34b3j.s 			page 4


  52:main.c        **** void motorGoStraight(){
 115              		.loc 1 52 0
 116              		.cfi_startproc
 117              		@ args = 0, pretend = 0, frame = 0
 118              		@ frame_needed = 1, uses_anonymous_args = 0
 119 0000 80B5     		push	{r7, lr}
 120              		.cfi_def_cfa_offset 8
 121              		.cfi_offset 7, -8
 122              		.cfi_offset 14, -4
 123 0002 00AF     		add	r7, sp, #0
 124              		.cfi_def_cfa_register 7
  53:main.c        ****     ////PWM_1_WriteCompare(150); // left wheel near power switch is stronker than right wheel //150
  54:main.c        ****     //M1_IN2_Write(0);
  55:main.c        ****     PWM_1_WriteCompare(160);//200 //180 //160
 125              		.loc 1 55 0
 126 0004 A020     		movs	r0, #160
 127 0006 FFF7FEFF 		bl	PWM_1_WriteCompare
  56:main.c        ****     PWM_2_WriteCompare(93); //52 //72 //93
 128              		.loc 1 56 0
 129 000a 5D20     		movs	r0, #93
 130 000c FFF7FEFF 		bl	PWM_2_WriteCompare
  57:main.c        **** }
 131              		.loc 1 57 0
 132 0010 00BF     		nop
 133 0012 80BD     		pop	{r7, pc}
 134              		.cfi_endproc
 135              	.LFE64:
 136              		.size	motorGoStraight, .-motorGoStraight
 137              		.section	.text.motorSetSpeed,"ax",%progbits
 138              		.align	2
 139              		.global	motorSetSpeed
 140              		.thumb
 141              		.thumb_func
 142              		.type	motorSetSpeed, %function
 143              	motorSetSpeed:
 144              	.LFB65:
  58:main.c        **** void motorSetSpeed(int x){
 145              		.loc 1 58 0
 146              		.cfi_startproc
 147              		@ args = 0, pretend = 0, frame = 8
 148              		@ frame_needed = 1, uses_anonymous_args = 0
 149 0000 80B5     		push	{r7, lr}
 150              		.cfi_def_cfa_offset 8
 151              		.cfi_offset 7, -8
 152              		.cfi_offset 14, -4
 153 0002 82B0     		sub	sp, sp, #8
 154              		.cfi_def_cfa_offset 16
 155 0004 00AF     		add	r7, sp, #0
 156              		.cfi_def_cfa_register 7
 157 0006 7860     		str	r0, [r7, #4]
  59:main.c        ****     ////PWM_1_WriteCompare(150); // left wheel near power switch is stronker than right wheel //150
  60:main.c        ****     //M1_IN2_Write(0);
  61:main.c        ****     
  62:main.c        ****     //fastest speed
  63:main.c        ****     PWM_1_WriteCompare(200+x);//200 //180 //160
 158              		.loc 1 63 0
 159 0008 7B68     		ldr	r3, [r7, #4]
ARM GAS  C:\Users\smiy200\AppData\Local\Temp\ccS34b3j.s 			page 5


 160 000a DBB2     		uxtb	r3, r3
 161 000c 383B     		subs	r3, r3, #56
 162 000e DBB2     		uxtb	r3, r3
 163 0010 1846     		mov	r0, r3
 164 0012 FFF7FEFF 		bl	PWM_1_WriteCompare
  64:main.c        ****     PWM_2_WriteCompare(52-x); //52 //72 //93
 165              		.loc 1 64 0
 166 0016 7B68     		ldr	r3, [r7, #4]
 167 0018 DBB2     		uxtb	r3, r3
 168 001a C3F13403 		rsb	r3, r3, #52
 169 001e DBB2     		uxtb	r3, r3
 170 0020 1846     		mov	r0, r3
 171 0022 FFF7FEFF 		bl	PWM_2_WriteCompare
  65:main.c        **** }
 172              		.loc 1 65 0
 173 0026 00BF     		nop
 174 0028 0837     		adds	r7, r7, #8
 175              		.cfi_def_cfa_offset 8
 176 002a BD46     		mov	sp, r7
 177              		.cfi_def_cfa_register 13
 178              		@ sp needed
 179 002c 80BD     		pop	{r7, pc}
 180              		.cfi_endproc
 181              	.LFE65:
 182              		.size	motorSetSpeed, .-motorSetSpeed
 183 002e 00BF     		.section	.text.motorGoBackwards,"ax",%progbits
 184              		.align	2
 185              		.global	motorGoBackwards
 186              		.thumb
 187              		.thumb_func
 188              		.type	motorGoBackwards, %function
 189              	motorGoBackwards:
 190              	.LFB66:
  66:main.c        **** void motorGoBackwards(){
 191              		.loc 1 66 0
 192              		.cfi_startproc
 193              		@ args = 0, pretend = 0, frame = 0
 194              		@ frame_needed = 1, uses_anonymous_args = 0
 195 0000 80B5     		push	{r7, lr}
 196              		.cfi_def_cfa_offset 8
 197              		.cfi_offset 7, -8
 198              		.cfi_offset 14, -4
 199 0002 00AF     		add	r7, sp, #0
 200              		.cfi_def_cfa_register 7
  67:main.c        ****     
  68:main.c        ****     //M1_IN2_Write(0);
  69:main.c        ****     PWM_1_WriteCompare(55); //55
 201              		.loc 1 69 0
 202 0004 3720     		movs	r0, #55
 203 0006 FFF7FEFF 		bl	PWM_1_WriteCompare
  70:main.c        ****     PWM_2_WriteCompare(201); //201
 204              		.loc 1 70 0
 205 000a C920     		movs	r0, #201
 206 000c FFF7FEFF 		bl	PWM_2_WriteCompare
  71:main.c        **** }
 207              		.loc 1 71 0
 208 0010 00BF     		nop
ARM GAS  C:\Users\smiy200\AppData\Local\Temp\ccS34b3j.s 			page 6


 209 0012 80BD     		pop	{r7, pc}
 210              		.cfi_endproc
 211              	.LFE66:
 212              		.size	motorGoBackwards, .-motorGoBackwards
 213              		.section	.text.motorStop,"ax",%progbits
 214              		.align	2
 215              		.global	motorStop
 216              		.thumb
 217              		.thumb_func
 218              		.type	motorStop, %function
 219              	motorStop:
 220              	.LFB67:
  72:main.c        **** void motorStop(){
 221              		.loc 1 72 0
 222              		.cfi_startproc
 223              		@ args = 0, pretend = 0, frame = 0
 224              		@ frame_needed = 1, uses_anonymous_args = 0
 225 0000 80B5     		push	{r7, lr}
 226              		.cfi_def_cfa_offset 8
 227              		.cfi_offset 7, -8
 228              		.cfi_offset 14, -4
 229 0002 00AF     		add	r7, sp, #0
 230              		.cfi_def_cfa_register 7
  73:main.c        ****     PWM_1_WriteCompare(127); 
 231              		.loc 1 73 0
 232 0004 7F20     		movs	r0, #127
 233 0006 FFF7FEFF 		bl	PWM_1_WriteCompare
  74:main.c        ****     PWM_2_WriteCompare(127);
 234              		.loc 1 74 0
 235 000a 7F20     		movs	r0, #127
 236 000c FFF7FEFF 		bl	PWM_2_WriteCompare
  75:main.c        **** }
 237              		.loc 1 75 0
 238 0010 00BF     		nop
 239 0012 80BD     		pop	{r7, pc}
 240              		.cfi_endproc
 241              	.LFE67:
 242              		.size	motorStop, .-motorStop
 243              		.section	.text.motorTurnLeft,"ax",%progbits
 244              		.align	2
 245              		.global	motorTurnLeft
 246              		.thumb
 247              		.thumb_func
 248              		.type	motorTurnLeft, %function
 249              	motorTurnLeft:
 250              	.LFB68:
  76:main.c        **** 
  77:main.c        **** void motorTurnLeft(uint8 x){
 251              		.loc 1 77 0
 252              		.cfi_startproc
 253              		@ args = 0, pretend = 0, frame = 8
 254              		@ frame_needed = 1, uses_anonymous_args = 0
 255 0000 80B5     		push	{r7, lr}
 256              		.cfi_def_cfa_offset 8
 257              		.cfi_offset 7, -8
 258              		.cfi_offset 14, -4
 259 0002 82B0     		sub	sp, sp, #8
ARM GAS  C:\Users\smiy200\AppData\Local\Temp\ccS34b3j.s 			page 7


 260              		.cfi_def_cfa_offset 16
 261 0004 00AF     		add	r7, sp, #0
 262              		.cfi_def_cfa_register 7
 263 0006 0346     		mov	r3, r0
 264 0008 FB71     		strb	r3, [r7, #7]
  78:main.c        ****     // TO DO
  79:main.c        ****     
  80:main.c        ****     PWM_1_WriteCompare(127); //55
 265              		.loc 1 80 0
 266 000a 7F20     		movs	r0, #127
 267 000c FFF7FEFF 		bl	PWM_1_WriteCompare
  81:main.c        ****     PWM_2_WriteCompare(x); //201
 268              		.loc 1 81 0
 269 0010 FB79     		ldrb	r3, [r7, #7]	@ zero_extendqisi2
 270 0012 1846     		mov	r0, r3
 271 0014 FFF7FEFF 		bl	PWM_2_WriteCompare
  82:main.c        ****     
  83:main.c        ****     
  84:main.c        ****     
  85:main.c        ****     //255
  86:main.c        **** }
 272              		.loc 1 86 0
 273 0018 00BF     		nop
 274 001a 0837     		adds	r7, r7, #8
 275              		.cfi_def_cfa_offset 8
 276 001c BD46     		mov	sp, r7
 277              		.cfi_def_cfa_register 13
 278              		@ sp needed
 279 001e 80BD     		pop	{r7, pc}
 280              		.cfi_endproc
 281              	.LFE68:
 282              		.size	motorTurnLeft, .-motorTurnLeft
 283              		.section	.text.motorTurnRight,"ax",%progbits
 284              		.align	2
 285              		.global	motorTurnRight
 286              		.thumb
 287              		.thumb_func
 288              		.type	motorTurnRight, %function
 289              	motorTurnRight:
 290              	.LFB69:
  87:main.c        **** 
  88:main.c        **** void motorTurnRight(int x){
 291              		.loc 1 88 0
 292              		.cfi_startproc
 293              		@ args = 0, pretend = 0, frame = 8
 294              		@ frame_needed = 1, uses_anonymous_args = 0
 295 0000 80B5     		push	{r7, lr}
 296              		.cfi_def_cfa_offset 8
 297              		.cfi_offset 7, -8
 298              		.cfi_offset 14, -4
 299 0002 82B0     		sub	sp, sp, #8
 300              		.cfi_def_cfa_offset 16
 301 0004 00AF     		add	r7, sp, #0
 302              		.cfi_def_cfa_register 7
 303 0006 7860     		str	r0, [r7, #4]
  89:main.c        ****     // TO DO
  90:main.c        ****     
ARM GAS  C:\Users\smiy200\AppData\Local\Temp\ccS34b3j.s 			page 8


  91:main.c        ****     PWM_1_WriteCompare(x);//200
 304              		.loc 1 91 0
 305 0008 7B68     		ldr	r3, [r7, #4]
 306 000a DBB2     		uxtb	r3, r3
 307 000c 1846     		mov	r0, r3
 308 000e FFF7FEFF 		bl	PWM_1_WriteCompare
  92:main.c        ****     PWM_2_WriteCompare(127); //50
 309              		.loc 1 92 0
 310 0012 7F20     		movs	r0, #127
 311 0014 FFF7FEFF 		bl	PWM_2_WriteCompare
  93:main.c        **** 
  94:main.c        **** }
 312              		.loc 1 94 0
 313 0018 00BF     		nop
 314 001a 0837     		adds	r7, r7, #8
 315              		.cfi_def_cfa_offset 8
 316 001c BD46     		mov	sp, r7
 317              		.cfi_def_cfa_register 13
 318              		@ sp needed
 319 001e 80BD     		pop	{r7, pc}
 320              		.cfi_endproc
 321              	.LFE69:
 322              		.size	motorTurnRight, .-motorTurnRight
 323              		.section	.text.motorCircle,"ax",%progbits
 324              		.align	2
 325              		.global	motorCircle
 326              		.thumb
 327              		.thumb_func
 328              		.type	motorCircle, %function
 329              	motorCircle:
 330              	.LFB70:
  95:main.c        **** 
  96:main.c        **** 
  97:main.c        **** void motorCircle(uint8 x){
 331              		.loc 1 97 0
 332              		.cfi_startproc
 333              		@ args = 0, pretend = 0, frame = 8
 334              		@ frame_needed = 1, uses_anonymous_args = 0
 335 0000 80B5     		push	{r7, lr}
 336              		.cfi_def_cfa_offset 8
 337              		.cfi_offset 7, -8
 338              		.cfi_offset 14, -4
 339 0002 82B0     		sub	sp, sp, #8
 340              		.cfi_def_cfa_offset 16
 341 0004 00AF     		add	r7, sp, #0
 342              		.cfi_def_cfa_register 7
 343 0006 0346     		mov	r3, r0
 344 0008 FB71     		strb	r3, [r7, #7]
  98:main.c        ****     // TO DO
  99:main.c        ****     //positive value turns left
 100:main.c        ****     //negative value turns right
 101:main.c        ****     PWM_1_WriteCompare(127+x); //147
 345              		.loc 1 101 0
 346 000a FB79     		ldrb	r3, [r7, #7]
 347 000c 7F33     		adds	r3, r3, #127
 348 000e DBB2     		uxtb	r3, r3
 349 0010 1846     		mov	r0, r3
ARM GAS  C:\Users\smiy200\AppData\Local\Temp\ccS34b3j.s 			page 9


 350 0012 FFF7FEFF 		bl	PWM_1_WriteCompare
 102:main.c        ****     PWM_2_WriteCompare(127+x); //
 351              		.loc 1 102 0
 352 0016 FB79     		ldrb	r3, [r7, #7]
 353 0018 7F33     		adds	r3, r3, #127
 354 001a DBB2     		uxtb	r3, r3
 355 001c 1846     		mov	r0, r3
 356 001e FFF7FEFF 		bl	PWM_2_WriteCompare
 103:main.c        ****     
 104:main.c        ****     
 105:main.c        ****     
 106:main.c        ****     //255
 107:main.c        **** }
 357              		.loc 1 107 0
 358 0022 00BF     		nop
 359 0024 0837     		adds	r7, r7, #8
 360              		.cfi_def_cfa_offset 8
 361 0026 BD46     		mov	sp, r7
 362              		.cfi_def_cfa_register 13
 363              		@ sp needed
 364 0028 80BD     		pop	{r7, pc}
 365              		.cfi_endproc
 366              	.LFE70:
 367              		.size	motorCircle, .-motorCircle
 368              		.global	changeMotor
 369 002a 00BF     		.bss
 370 0012 0000     		.align	2
 371              		.type	changeMotor, %object
 372              		.size	changeMotor, 4
 373              	changeMotor:
 374 0014 00000000 		.space	4
 375              		.global	checkLight
 376              		.align	2
 377              		.type	checkLight, %object
 378              		.size	checkLight, 4
 379              	checkLight:
 380 0018 00000000 		.space	4
 381              		.global	lightState
 382              		.align	2
 383              		.type	lightState, %object
 384              		.size	lightState, 4
 385              	lightState:
 386 001c 00000000 		.space	4
 387              		.global	lightDetectedFront
 388              		.align	2
 389              		.type	lightDetectedFront, %object
 390              		.size	lightDetectedFront, 12
 391              	lightDetectedFront:
 392 0020 00000000 		.space	12
 392      00000000 
 392      00000000 
 393              		.global	lightDetectedBack
 394              		.align	2
 395              		.type	lightDetectedBack, %object
 396              		.size	lightDetectedBack, 12
 397              	lightDetectedBack:
 398 002c 00000000 		.space	12
ARM GAS  C:\Users\smiy200\AppData\Local\Temp\ccS34b3j.s 			page 10


 398      00000000 
 398      00000000 
 399              		.global	counteoc
 400              		.align	2
 401              		.type	counteoc, %object
 402              		.size	counteoc, 4
 403              	counteoc:
 404 0038 00000000 		.space	4
 405              		.global	processSensors
 406              		.align	2
 407              		.type	processSensors, %object
 408              		.size	processSensors, 4
 409              	processSensors:
 410 003c 00000000 		.space	4
 411              		.global	middle
 412              		.align	2
 413              		.type	middle, %object
 414              		.size	middle, 4
 415              	middle:
 416 0040 00000000 		.space	4
 417              		.section	.text.isr_eoc_Interrupt_test,"ax",%progbits
 418              		.align	2
 419              		.global	isr_eoc_Interrupt_test
 420              		.thumb
 421              		.thumb_func
 422              		.type	isr_eoc_Interrupt_test, %function
 423              	isr_eoc_Interrupt_test:
 424              	.LFB71:
 108:main.c        **** int changeMotor=0;
 109:main.c        **** int checkLight =0;
 110:main.c        **** int lightState=0;
 111:main.c        **** volatile int lightDetectedFront[3] = {0,0,0};
 112:main.c        **** volatile int lightDetectedBack[3] = {0,0,0};
 113:main.c        **** volatile int counteoc = 0;
 114:main.c        **** volatile int processSensors = 0;
 115:main.c        **** volatile int middle =0;
 116:main.c        **** CY_ISR(isr_eoc_Interrupt_test)
 117:main.c        **** {
 425              		.loc 1 117 0
 426              		.cfi_startproc
 427              		@ args = 0, pretend = 0, frame = 16
 428              		@ frame_needed = 1, uses_anonymous_args = 0
 429 0000 80B5     		push	{r7, lr}
 430              		.cfi_def_cfa_offset 8
 431              		.cfi_offset 7, -8
 432              		.cfi_offset 14, -4
 433 0002 84B0     		sub	sp, sp, #16
 434              		.cfi_def_cfa_offset 24
 435 0004 00AF     		add	r7, sp, #0
 436              		.cfi_def_cfa_register 7
 118:main.c        ****     #ifdef isr_test_INTERRUPT_INTERRUPT_CALLBACK
 119:main.c        ****         isr_TS_Interrupt_InterruptCallback();
 120:main.c        ****     #endif /* isr_eoc_INTERRUPT_INTERRUPT_CALLBACK */ 
 121:main.c        **** 
 122:main.c        ****     /*  Place your Interrupt code here. */
 123:main.c        ****     /* `#START isr_eoc_Interrupt` */
 124:main.c        ****     
ARM GAS  C:\Users\smiy200\AppData\Local\Temp\ccS34b3j.s 			page 11


 125:main.c        ****     
 126:main.c        ****     // get value from ADC then convert to DAC to send to external LEDs
 127:main.c        ****     if (counteoc < 13){//10
 437              		.loc 1 127 0
 438 0006 324B     		ldr	r3, .L18
 439 0008 1B68     		ldr	r3, [r3]
 440 000a 0C2B     		cmp	r3, #12
 441 000c 59DC     		bgt	.L9
 442              	.LBB2:
 128:main.c        ****         
 129:main.c        ****         int16 valueQ3 =  ADC_GetResult16(Q3CHANNEL);
 443              		.loc 1 129 0
 444 000e 0020     		movs	r0, #0
 445 0010 FFF7FEFF 		bl	ADC_GetResult16
 446 0014 0346     		mov	r3, r0
 447 0016 FB81     		strh	r3, [r7, #14]	@ movhi
 130:main.c        ****         int16 valueQ4 =  ADC_GetResult16(Q4CHANNEL);
 448              		.loc 1 130 0
 449 0018 0120     		movs	r0, #1
 450 001a FFF7FEFF 		bl	ADC_GetResult16
 451 001e 0346     		mov	r3, r0
 452 0020 BB81     		strh	r3, [r7, #12]	@ movhi
 131:main.c        ****         int16 valueQ5 =  ADC_GetResult16(Q5CHANNEL);
 453              		.loc 1 131 0
 454 0022 0220     		movs	r0, #2
 455 0024 FFF7FEFF 		bl	ADC_GetResult16
 456 0028 0346     		mov	r3, r0
 457 002a 7B81     		strh	r3, [r7, #10]	@ movhi
 132:main.c        ****     
 133:main.c        ****         int16 valueQ1 =  ADC_GetResult16(Q1CHANNEL);
 458              		.loc 1 133 0
 459 002c 0320     		movs	r0, #3
 460 002e FFF7FEFF 		bl	ADC_GetResult16
 461 0032 0346     		mov	r3, r0
 462 0034 3B81     		strh	r3, [r7, #8]	@ movhi
 134:main.c        ****         int16 valueQ2 =  ADC_GetResult16(Q2CHANNEL);
 463              		.loc 1 134 0
 464 0036 0520     		movs	r0, #5
 465 0038 FFF7FEFF 		bl	ADC_GetResult16
 466 003c 0346     		mov	r3, r0
 467 003e FB80     		strh	r3, [r7, #6]	@ movhi
 135:main.c        ****         int16 valueQ6 =  ADC_GetResult16(Q6CHANNEL);
 468              		.loc 1 135 0
 469 0040 0420     		movs	r0, #4
 470 0042 FFF7FEFF 		bl	ADC_GetResult16
 471 0046 0346     		mov	r3, r0
 472 0048 BB80     		strh	r3, [r7, #4]	@ movhi
 136:main.c        ****         
 137:main.c        ****         
 138:main.c        ****         //2211
 139:main.c        ****         if (valueQ3 >= 2211) {
 473              		.loc 1 139 0
 474 004a B7F90E30 		ldrsh	r3, [r7, #14]
 475 004e 40F6A202 		movw	r2, #2210
 476 0052 9342     		cmp	r3, r2
 477 0054 02DD     		ble	.L10
 140:main.c        ****         //set flag for white light detected
ARM GAS  C:\Users\smiy200\AppData\Local\Temp\ccS34b3j.s 			page 12


 141:main.c        ****         lightDetectedFront[0] = 1;
 478              		.loc 1 141 0
 479 0056 1F4B     		ldr	r3, .L18+4
 480 0058 0122     		movs	r2, #1
 481 005a 1A60     		str	r2, [r3]
 482              	.L10:
 142:main.c        ****         }
 143:main.c        ****         if (valueQ4 >= 2211) {
 483              		.loc 1 143 0
 484 005c B7F90C30 		ldrsh	r3, [r7, #12]
 485 0060 40F6A202 		movw	r2, #2210
 486 0064 9342     		cmp	r3, r2
 487 0066 02DD     		ble	.L11
 144:main.c        ****         //set flag for white light detected
 145:main.c        ****         lightDetectedFront[1] = 1;
 488              		.loc 1 145 0
 489 0068 1A4B     		ldr	r3, .L18+4
 490 006a 0122     		movs	r2, #1
 491 006c 5A60     		str	r2, [r3, #4]
 492              	.L11:
 146:main.c        ****         }
 147:main.c        ****     
 148:main.c        ****         if (valueQ5 >= 2211) {
 493              		.loc 1 148 0
 494 006e B7F90A30 		ldrsh	r3, [r7, #10]
 495 0072 40F6A202 		movw	r2, #2210
 496 0076 9342     		cmp	r3, r2
 497 0078 02DD     		ble	.L12
 149:main.c        ****         //set flag for white light detected
 150:main.c        ****         lightDetectedFront[2] = 1;
 498              		.loc 1 150 0
 499 007a 164B     		ldr	r3, .L18+4
 500 007c 0122     		movs	r2, #1
 501 007e 9A60     		str	r2, [r3, #8]
 502              	.L12:
 151:main.c        ****         }
 152:main.c        ****         
 153:main.c        ****         if (valueQ1 >= 2211) {
 503              		.loc 1 153 0
 504 0080 B7F90830 		ldrsh	r3, [r7, #8]
 505 0084 40F6A202 		movw	r2, #2210
 506 0088 9342     		cmp	r3, r2
 507 008a 02DD     		ble	.L13
 154:main.c        ****         //set flag for white light detected
 155:main.c        ****             lightDetectedBack[1] = 1;
 508              		.loc 1 155 0
 509 008c 124B     		ldr	r3, .L18+8
 510 008e 0122     		movs	r2, #1
 511 0090 5A60     		str	r2, [r3, #4]
 512              	.L13:
 156:main.c        ****         }
 157:main.c        ****         
 158:main.c        ****         if (valueQ2 >= 2211) {
 513              		.loc 1 158 0
 514 0092 B7F90630 		ldrsh	r3, [r7, #6]
 515 0096 40F6A202 		movw	r2, #2210
 516 009a 9342     		cmp	r3, r2
ARM GAS  C:\Users\smiy200\AppData\Local\Temp\ccS34b3j.s 			page 13


 517 009c 02DD     		ble	.L14
 159:main.c        ****         //set flag for white light detected
 160:main.c        ****             lightDetectedBack[2] = 1;
 518              		.loc 1 160 0
 519 009e 0E4B     		ldr	r3, .L18+8
 520 00a0 0122     		movs	r2, #1
 521 00a2 9A60     		str	r2, [r3, #8]
 522              	.L14:
 161:main.c        ****         }
 162:main.c        ****                 
 163:main.c        ****                 
 164:main.c        ****         if (valueQ6 >= 2211) {
 523              		.loc 1 164 0
 524 00a4 B7F90430 		ldrsh	r3, [r7, #4]
 525 00a8 40F6A202 		movw	r2, #2210
 526 00ac 9342     		cmp	r3, r2
 527 00ae 02DD     		ble	.L15
 165:main.c        ****         //set flag for white light detected
 166:main.c        ****             lightDetectedBack[0] = 1;
 528              		.loc 1 166 0
 529 00b0 094B     		ldr	r3, .L18+8
 530 00b2 0122     		movs	r2, #1
 531 00b4 1A60     		str	r2, [r3]
 532              	.L15:
 167:main.c        ****         }
 168:main.c        ****         
 169:main.c        ****         counteoc++;
 533              		.loc 1 169 0
 534 00b6 064B     		ldr	r3, .L18
 535 00b8 1B68     		ldr	r3, [r3]
 536 00ba 0133     		adds	r3, r3, #1
 537 00bc 044A     		ldr	r2, .L18
 538 00be 1360     		str	r3, [r2]
 539              	.LBE2:
 170:main.c        ****     } else {
 171:main.c        ****         processSensors = 1;   
 172:main.c        ****        
 173:main.c        ****     }
 174:main.c        ****     /* `#END` */
 175:main.c        **** }
 540              		.loc 1 175 0
 541 00c0 02E0     		b	.L17
 542              	.L9:
 171:main.c        ****        
 543              		.loc 1 171 0
 544 00c2 064B     		ldr	r3, .L18+12
 545 00c4 0122     		movs	r2, #1
 546 00c6 1A60     		str	r2, [r3]
 547              	.L17:
 548              		.loc 1 175 0
 549 00c8 00BF     		nop
 550 00ca 1037     		adds	r7, r7, #16
 551              		.cfi_def_cfa_offset 8
 552 00cc BD46     		mov	sp, r7
 553              		.cfi_def_cfa_register 13
 554              		@ sp needed
 555 00ce 80BD     		pop	{r7, pc}
ARM GAS  C:\Users\smiy200\AppData\Local\Temp\ccS34b3j.s 			page 14


 556              	.L19:
 557              		.align	2
 558              	.L18:
 559 00d0 00000000 		.word	counteoc
 560 00d4 00000000 		.word	lightDetectedFront
 561 00d8 00000000 		.word	lightDetectedBack
 562 00dc 00000000 		.word	processSensors
 563              		.cfi_endproc
 564              	.LFE71:
 565              		.size	isr_eoc_Interrupt_test, .-isr_eoc_Interrupt_test
 566              		.bss
 567              	count:
 568 0044 00       		.space	1
 569              		.section	.text.isr_motor_interrupt_speed,"ax",%progbits
 570              		.align	2
 571              		.global	isr_motor_interrupt_speed
 572              		.thumb
 573              		.thumb_func
 574              		.type	isr_motor_interrupt_speed, %function
 575              	isr_motor_interrupt_speed:
 576              	.LFB72:
 176:main.c        **** // NEED TO INCREASE/DECREASE SPEED TOO
 177:main.c        **** // AND IMPLEMENT LIGHT SENSOR THINGS
 178:main.c        **** volatile static int8 count;
 179:main.c        **** CY_ISR(isr_motor_interrupt_speed)
 180:main.c        **** {
 577              		.loc 1 180 0
 578              		.cfi_startproc
 579              		@ args = 0, pretend = 0, frame = 0
 580              		@ frame_needed = 1, uses_anonymous_args = 0
 581              		@ link register save eliminated.
 582 0000 80B4     		push	{r7}
 583              		.cfi_def_cfa_offset 4
 584              		.cfi_offset 7, -4
 585 0002 00AF     		add	r7, sp, #0
 586              		.cfi_def_cfa_register 7
 181:main.c        ****     #ifdef isr_motor_INTERRUPT_INTERRUPT_CALLBACK
 182:main.c        ****         isr_motor_Interrupt_InterruptCallback();
 183:main.c        ****     #endif /* isr_motor_INTERRUPT_INTERRUPT_CALLBACK */ 
 184:main.c        **** 
 185:main.c        ****     /*  Place your Interrupt code here. */
 186:main.c        ****     /* `#START isr_motor_Interrupt` */
 187:main.c        ****       /*int16 currCountMotor2 = QuadDec_M2_GetCounter();
 188:main.c        ****       int16 currCountMotor1 = QuadDec_M1_GetCounter();  
 189:main.c        ****       
 190:main.c        ****      speedMotor1 = (currCountMotor1 - prevcountMotor1) / 0.2;
 191:main.c        ****      speedMotor2 = (currCountMotor2 - prevcountMotor2) / 0.2;
 192:main.c        ****     
 193:main.c        ****       prevcountMotor1 = currCountMotor1;
 194:main.c        ****       prevcountMotor2 = currCountMotor2;*/
 195:main.c        ****     
 196:main.c        ****     /* `#END` */
 197:main.c        **** }
 587              		.loc 1 197 0
 588 0004 00BF     		nop
 589 0006 BD46     		mov	sp, r7
 590              		.cfi_def_cfa_register 13
ARM GAS  C:\Users\smiy200\AppData\Local\Temp\ccS34b3j.s 			page 15


 591              		@ sp needed
 592 0008 80BC     		pop	{r7}
 593              		.cfi_restore 7
 594              		.cfi_def_cfa_offset 0
 595 000a 7047     		bx	lr
 596              		.cfi_endproc
 597              	.LFE72:
 598              		.size	isr_motor_interrupt_speed, .-isr_motor_interrupt_speed
 599              		.section	.rodata
 600              		.align	2
 601              	.LC0:
 602 0000 4D6F746F 		.ascii	"Motor 1 - start count: %d, end count: %d \012\000"
 602      72203120 
 602      2D207374 
 602      61727420 
 602      636F756E 
 603 002b 00       		.align	2
 604              	.LC1:
 605 002c 4D6F746F 		.ascii	"Motor 2 - start count: %d, end count: %d \012\000"
 605      72203220 
 605      2D207374 
 605      61727420 
 605      636F756E 
 606              		.section	.text.motorCount,"ax",%progbits
 607              		.align	2
 608              		.global	motorCount
 609              		.thumb
 610              		.thumb_func
 611              		.type	motorCount, %function
 612              	motorCount:
 613              	.LFB73:
 198:main.c        **** void motorCount(){
 614              		.loc 1 198 0
 615              		.cfi_startproc
 616              		@ args = 0, pretend = 0, frame = 20008
 617              		@ frame_needed = 1, uses_anonymous_args = 0
 618 0000 80B5     		push	{r7, lr}
 619              		.cfi_def_cfa_offset 8
 620              		.cfi_offset 7, -8
 621              		.cfi_offset 14, -4
 622 0002 ADF59C4D 		sub	sp, sp, #19968
 623              		.cfi_def_cfa_offset 19976
 624 0006 8AB0     		sub	sp, sp, #40
 625              		.cfi_def_cfa_offset 20016
 626 0008 00AF     		add	r7, sp, #0
 627              		.cfi_def_cfa_register 7
 199:main.c        ****     int16 beginningCountMotor1 = 0;
 628              		.loc 1 199 0
 629 000a 0023     		movs	r3, #0
 630 000c 07F59C42 		add	r2, r7, #19968
 631 0010 02F12602 		add	r2, r2, #38
 632 0014 1380     		strh	r3, [r2]	@ movhi
 200:main.c        ****     int16 beginningCountMotor2 = 0;
 633              		.loc 1 200 0
 634 0016 0023     		movs	r3, #0
 635 0018 07F59C42 		add	r2, r7, #19968
 636 001c 02F12402 		add	r2, r2, #36
ARM GAS  C:\Users\smiy200\AppData\Local\Temp\ccS34b3j.s 			page 16


 637 0020 1380     		strh	r3, [r2]	@ movhi
 201:main.c        ****     int16 endCountMotor2 = QuadDec_M2_GetCounter();
 638              		.loc 1 201 0
 639 0022 FFF7FEFF 		bl	QuadDec_M2_GetCounter
 640 0026 0346     		mov	r3, r0
 641 0028 07F59C42 		add	r2, r7, #19968
 642 002c 02F12202 		add	r2, r2, #34
 643 0030 1380     		strh	r3, [r2]	@ movhi
 202:main.c        ****     int16 endCountMotor1 = QuadDec_M1_GetCounter();
 644              		.loc 1 202 0
 645 0032 FFF7FEFF 		bl	QuadDec_M1_GetCounter
 646 0036 0346     		mov	r3, r0
 647 0038 07F59C42 		add	r2, r7, #19968
 648 003c 02F12002 		add	r2, r2, #32
 649 0040 1380     		strh	r3, [r2]	@ movhi
 203:main.c        ****     char motor1String[10000]; 
 204:main.c        ****     sprintf(motor1String,"Motor 1 - start count: %d, end count: %d \n", beginningCountMotor1, endCo
 650              		.loc 1 204 0
 651 0042 07F59C43 		add	r3, r7, #19968
 652 0046 03F12603 		add	r3, r3, #38
 653 004a B3F90020 		ldrsh	r2, [r3]
 654 004e 07F59C43 		add	r3, r7, #19968
 655 0052 03F12003 		add	r3, r3, #32
 656 0056 B3F90030 		ldrsh	r3, [r3]
 657 005a 07F51C50 		add	r0, r7, #9984
 658 005e 00F12800 		add	r0, r0, #40
 659 0062 1838     		subs	r0, r0, #24
 660 0064 1449     		ldr	r1, .L22
 661 0066 FFF7FEFF 		bl	sprintf
 205:main.c        ****     char motor2String[10000];
 206:main.c        ****     sprintf(motor2String,"Motor 2 - start count: %d, end count: %d \n", beginningCountMotor2 , endC
 662              		.loc 1 206 0
 663 006a 07F59C43 		add	r3, r7, #19968
 664 006e 03F12403 		add	r3, r3, #36
 665 0072 B3F90020 		ldrsh	r2, [r3]
 666 0076 07F59C43 		add	r3, r7, #19968
 667 007a 03F12203 		add	r3, r3, #34
 668 007e B3F90030 		ldrsh	r3, [r3]
 669 0082 07F12800 		add	r0, r7, #40
 670 0086 2838     		subs	r0, r0, #40
 671 0088 0C49     		ldr	r1, .L22+4
 672 008a FFF7FEFF 		bl	sprintf
 207:main.c        ****     
 208:main.c        ****     usbPutString(motor1String);
 673              		.loc 1 208 0
 674 008e 07F51C53 		add	r3, r7, #9984
 675 0092 03F12803 		add	r3, r3, #40
 676 0096 183B     		subs	r3, r3, #24
 677 0098 1846     		mov	r0, r3
 678 009a FFF7FEFF 		bl	usbPutString
 209:main.c        ****     usbPutString(motor2String);
 679              		.loc 1 209 0
 680 009e 07F12803 		add	r3, r7, #40
 681 00a2 283B     		subs	r3, r3, #40
 682 00a4 1846     		mov	r0, r3
 683 00a6 FFF7FEFF 		bl	usbPutString
 210:main.c        **** 
ARM GAS  C:\Users\smiy200\AppData\Local\Temp\ccS34b3j.s 			page 17


 211:main.c        **** }
 684              		.loc 1 211 0
 685 00aa 00BF     		nop
 686 00ac 07F59C47 		add	r7, r7, #19968
 687 00b0 2837     		adds	r7, r7, #40
 688              		.cfi_def_cfa_offset 8
 689 00b2 BD46     		mov	sp, r7
 690              		.cfi_def_cfa_register 13
 691              		@ sp needed
 692 00b4 80BD     		pop	{r7, pc}
 693              	.L23:
 694 00b6 00BF     		.align	2
 695              	.L22:
 696 00b8 00000000 		.word	.LC0
 697 00bc 2C000000 		.word	.LC1
 698              		.cfi_endproc
 699              	.LFE73:
 700              		.size	motorCount, .-motorCount
 701              		.section	.text.motorRun,"ax",%progbits
 702              		.align	2
 703              		.global	motorRun
 704              		.thumb
 705              		.thumb_func
 706              		.type	motorRun, %function
 707              	motorRun:
 708              	.LFB74:
 212:main.c        **** 
 213:main.c        **** void motorRun(int x){
 709              		.loc 1 213 0
 710              		.cfi_startproc
 711              		@ args = 0, pretend = 0, frame = 8
 712              		@ frame_needed = 1, uses_anonymous_args = 0
 713 0000 80B5     		push	{r7, lr}
 714              		.cfi_def_cfa_offset 8
 715              		.cfi_offset 7, -8
 716              		.cfi_offset 14, -4
 717 0002 82B0     		sub	sp, sp, #8
 718              		.cfi_def_cfa_offset 16
 719 0004 00AF     		add	r7, sp, #0
 720              		.cfi_def_cfa_register 7
 721 0006 7860     		str	r0, [r7, #4]
 214:main.c        ****     
 215:main.c        ****     
 216:main.c        ****     
 217:main.c        ****     //PWM_1_Start();
 218:main.c        ****     //PWM_2_Start();
 219:main.c        **** 
 220:main.c        **** 
 221:main.c        ****     //motorStop();
 222:main.c        ****     //CyDelay(time); // so we have time to set the robot up
 223:main.c        ****     motorSetSpeed(x);
 722              		.loc 1 223 0
 723 0008 7868     		ldr	r0, [r7, #4]
 724 000a FFF7FEFF 		bl	motorSetSpeed
 224:main.c        ****     //CyDelay(time);
 225:main.c        ****     motorStop();
 725              		.loc 1 225 0
ARM GAS  C:\Users\smiy200\AppData\Local\Temp\ccS34b3j.s 			page 18


 726 000e FFF7FEFF 		bl	motorStop
 226:main.c        ****     
 227:main.c        ****     //motorGoBackwards();
 228:main.c        **** 
 229:main.c        ****     
 230:main.c        ****     //CyDelay(2000);
 231:main.c        ****  
 232:main.c        ****     //motorStop();
 233:main.c        ****     //motorCount();//checks count per second.
 234:main.c        **** 
 235:main.c        ****     
 236:main.c        **** }
 727              		.loc 1 236 0
 728 0012 00BF     		nop
 729 0014 0837     		adds	r7, r7, #8
 730              		.cfi_def_cfa_offset 8
 731 0016 BD46     		mov	sp, r7
 732              		.cfi_def_cfa_register 13
 733              		@ sp needed
 734 0018 80BD     		pop	{r7, pc}
 735              		.cfi_endproc
 736              	.LFE74:
 737              		.size	motorRun, .-motorRun
 738 001a 00BF     		.section	.text.isr_TS_Interrupt_sample,"ax",%progbits
 739              		.align	2
 740              		.global	isr_TS_Interrupt_sample
 741              		.thumb
 742              		.thumb_func
 743              		.type	isr_TS_Interrupt_sample, %function
 744              	isr_TS_Interrupt_sample:
 745              	.LFB75:
 237:main.c        **** CY_ISR(isr_TS_Interrupt_sample)
 238:main.c        **** {
 746              		.loc 1 238 0
 747              		.cfi_startproc
 748              		@ args = 0, pretend = 0, frame = 0
 749              		@ frame_needed = 1, uses_anonymous_args = 0
 750 0000 80B5     		push	{r7, lr}
 751              		.cfi_def_cfa_offset 8
 752              		.cfi_offset 7, -8
 753              		.cfi_offset 14, -4
 754 0002 00AF     		add	r7, sp, #0
 755              		.cfi_def_cfa_register 7
 239:main.c        ****     #ifdef isr_TS_INTERRUPT_INTERRUPT_CALLBACK
 240:main.c        ****         isr_TS_Interrupt_InterruptCallback();
 241:main.c        ****     #endif /* isr_TS_INTERRUPT_INTERRUPT_CALLBACK */ 
 242:main.c        ****         ADC_StartConvert();
 756              		.loc 1 242 0
 757 0004 FFF7FEFF 		bl	ADC_StartConvert
 243:main.c        ****     /*  Place your Interrupt code here. */
 244:main.c        ****     /* `#START isr_TS_Interrupt` */
 245:main.c        **** 
 246:main.c        ****     /* `#END` */
 247:main.c        **** }
 758              		.loc 1 247 0
 759 0008 00BF     		nop
 760 000a 80BD     		pop	{r7, pc}
ARM GAS  C:\Users\smiy200\AppData\Local\Temp\ccS34b3j.s 			page 19


 761              		.cfi_endproc
 762              	.LFE75:
 763              		.size	isr_TS_Interrupt_sample, .-isr_TS_Interrupt_sample
 764              		.section	.text.main,"ax",%progbits
 765              		.align	2
 766              		.global	main
 767              		.thumb
 768              		.thumb_func
 769              		.type	main, %function
 770              	main:
 771              	.LFB76:
 248:main.c        **** 
 249:main.c        **** 
 250:main.c        **** int main()
 251:main.c        **** {
 772              		.loc 1 251 0
 773              		.cfi_startproc
 774              		@ args = 0, pretend = 0, frame = 4040
 775              		@ frame_needed = 1, uses_anonymous_args = 0
 776 0000 80B5     		push	{r7, lr}
 777              		.cfi_def_cfa_offset 8
 778              		.cfi_offset 7, -8
 779              		.cfi_offset 14, -4
 780 0002 ADF6C87D 		subw	sp, sp, #4040
 781              		.cfi_def_cfa_offset 4048
 782 0006 00AF     		add	r7, sp, #0
 783              		.cfi_def_cfa_register 7
 252:main.c        ****     
 253:main.c        **** 
 254:main.c        **** // --------------------------------    
 255:main.c        **** // ----- INITIALIZATIONS ----------
 256:main.c        ****     CYGlobalIntEnable;
 784              		.loc 1 256 0
 785              		.syntax unified
 786              	@ 256 "main.c" 1
 787 0008 62B6     		CPSIE   i
 788              	@ 0 "" 2
 257:main.c        ****     count  = 0;
 789              		.loc 1 257 0
 790              		.thumb
 791              		.syntax unified
 792 000a 8C4B     		ldr	r3, .L47
 793 000c 0022     		movs	r2, #0
 794 000e 1A70     		strb	r2, [r3]
 258:main.c        ****     
 259:main.c        ****     ADC_Start();
 795              		.loc 1 259 0
 796 0010 FFF7FEFF 		bl	ADC_Start
 260:main.c        ****     Timer_TS_Start();
 797              		.loc 1 260 0
 798 0014 FFF7FEFF 		bl	Timer_TS_Start
 261:main.c        ****     Timer_Motor_Start();
 799              		.loc 1 261 0
 800 0018 FFF7FEFF 		bl	Timer_Motor_Start
 262:main.c        ****     QuadDec_M1_Start();
 801              		.loc 1 262 0
 802 001c FFF7FEFF 		bl	QuadDec_M1_Start
ARM GAS  C:\Users\smiy200\AppData\Local\Temp\ccS34b3j.s 			page 20


 263:main.c        ****     QuadDec_M2_Start(); //init the quadencoder,
 803              		.loc 1 263 0
 804 0020 FFF7FEFF 		bl	QuadDec_M2_Start
 264:main.c        ****     //isr_motor_StartEx(isr_motor_interrupt_speed);
 265:main.c        ****     
 266:main.c        ****     isr_TS_StartEx(isr_TS_Interrupt_sample);
 805              		.loc 1 266 0
 806 0024 8648     		ldr	r0, .L47+4
 807 0026 FFF7FEFF 		bl	isr_TS_StartEx
 267:main.c        ****     isr_eoc_StartEx(isr_eoc_Interrupt_test);
 808              		.loc 1 267 0
 809 002a 8648     		ldr	r0, .L47+8
 810 002c FFF7FEFF 		bl	isr_eoc_StartEx
 268:main.c        ****     
 269:main.c        ****     
 270:main.c        ****     //ADC_StartConvert();
 271:main.c        ****     
 272:main.c        ****     PWM_1_Start();
 811              		.loc 1 272 0
 812 0030 FFF7FEFF 		bl	PWM_1_Start
 273:main.c        ****     PWM_2_Start();
 813              		.loc 1 273 0
 814 0034 FFF7FEFF 		bl	PWM_2_Start
 274:main.c        ****     LED_Write(0);
 815              		.loc 1 274 0
 816 0038 0020     		movs	r0, #0
 817 003a FFF7FEFF 		bl	LED_Write
 275:main.c        ****     motorStop();
 818              		.loc 1 275 0
 819 003e FFF7FEFF 		bl	motorStop
 276:main.c        ****     USBUART_Start(0,USBUART_5V_OPERATION)   ; 
 820              		.loc 1 276 0
 821 0042 0121     		movs	r1, #1
 822 0044 0020     		movs	r0, #0
 823 0046 FFF7FEFF 		bl	USBUART_Start
 277:main.c        ****     ////////////////////////////////
 278:main.c        ****     
 279:main.c        ****     // Speed//
 280:main.c        ****     //int speed = -33;
 281:main.c        ****     //int time = 2000;
 282:main.c        ****    // motorRun(speed,time);
 283:main.c        **** 
 284:main.c        ****     /////////////////////////////////////////////
 285:main.c        ****     int lastState=0;
 824              		.loc 1 285 0
 825 004a 0023     		movs	r3, #0
 826 004c C7F8B83F 		str	r3, [r7, #4024]
 286:main.c        ****     //usbPutString(displaystring);
 287:main.c        ****      //87cm motor 1 945, motor2 -958. 2seconds.
 288:main.c        ****     //10.8 counts per cm for distance.
 289:main.c        ****    //for speed,43.5cm/s 
 290:main.c        ****     
 291:main.c        **** //    
 292:main.c        **** // ----------      //distance ---------
 293:main.c        ****  int travelDis = 1740;//10.8 * travelDis
 827              		.loc 1 293 0
 828 0050 40F2CC63 		movw	r3, #1740
ARM GAS  C:\Users\smiy200\AppData\Local\Temp\ccS34b3j.s 			page 21


 829 0054 C7F8B43F 		str	r3, [r7, #4020]
 294:main.c        ****     /*
 295:main.c        ****   while(QuadDec_M1_GetCounter()<travelDis){
 296:main.c        ****         if (processSensors == 1) {
 297:main.c        ****     
 298:main.c        ****             int operation = convertSensorBinary();
 299:main.c        ****             
 300:main.c        ****     
 301:main.c        ****             switch(operation){
 302:main.c        ****                 case 3:// 0 1 1 // Q3 under black
 303:main.c        ****                     motorTurnLeft(50);//decrease go fast used to be 50 by 6
 304:main.c        ****                     LED_Write(1);
 305:main.c        ****                     break;    
 306:main.c        ****                     
 307:main.c        ****                 case 6:// 1 1 0 // Q5 under black  
 308:main.c        ****                     motorTurnRight(200);//increase 200 by 6
 309:main.c        ****                     LED_Write(1);
 310:main.c        ****                     break;
 311:main.c        ****                     
 312:main.c        ****                 case 5:// 101 // Q4 under black
 313:main.c        ****                     motorSetSpeed(-7); //-40 is original
 314:main.c        ****                     LED_Write(0);
 315:main.c        ****                     break;
 316:main.c        ****             }
 317:main.c        ****             
 318:main.c        ****              processSensors = 0;
 319:main.c        ****             //reset counter
 320:main.c        **** 
 321:main.c        ****             counteoc = 0;
 322:main.c        ****             //reset flags for lightsensors because it checks every 10 iterations, adds delay/
 323:main.c        ****             lightDetectedFront[0] = 0;
 324:main.c        ****             lightDetectedFront[1] = 0;
 325:main.c        ****             lightDetectedFront[2] = 0;
 326:main.c        ****             lightDetectedBack[0] = 0;
 327:main.c        ****             lightDetectedBack[1] = 0;
 328:main.c        ****             lightDetectedBack[2] = 0;
 329:main.c        ****           
 330:main.c        ****             
 331:main.c        ****     
 332:main.c        ****         }
 333:main.c        ****     }
 334:main.c        ****     motorStop();
 335:main.c        ****     motorCount();
 336:main.c        ****     
 337:main.c        ****     /// ---------End here----------
 338:main.c        ****     
 339:main.c        ****     
 340:main.c        ****         
 341:main.c        ****    
 342:main.c        ****     
 343:main.c        ****     */
 344:main.c        ****     int decisionflag =0;
 830              		.loc 1 344 0
 831 0058 0023     		movs	r3, #0
 832 005a C7F8C43F 		str	r3, [r7, #4036]
 345:main.c        ****     
 346:main.c        ****     // 0 go straight
ARM GAS  C:\Users\smiy200\AppData\Local\Temp\ccS34b3j.s 			page 22


 347:main.c        ****     // 1 go right
 348:main.c        ****     //5 is die
 349:main.c        ****     
 350:main.c        ****     int queue[1000] = { 2, 0, 2, 0, 0, 2, 2, 1, 2, 1, 0, 0};
 833              		.loc 1 350 0
 834 005e 3B1D     		adds	r3, r7, #4
 835 0060 1846     		mov	r0, r3
 836 0062 4FF47A63 		mov	r3, #4000
 837 0066 1A46     		mov	r2, r3
 838 0068 0021     		movs	r1, #0
 839 006a FFF7FEFF 		bl	memset
 840 006e 3B1D     		adds	r3, r7, #4
 841 0070 0222     		movs	r2, #2
 842 0072 1A60     		str	r2, [r3]
 843 0074 3B1D     		adds	r3, r7, #4
 844 0076 0222     		movs	r2, #2
 845 0078 9A60     		str	r2, [r3, #8]
 846 007a 3B1D     		adds	r3, r7, #4
 847 007c 0222     		movs	r2, #2
 848 007e 5A61     		str	r2, [r3, #20]
 849 0080 3B1D     		adds	r3, r7, #4
 850 0082 0222     		movs	r2, #2
 851 0084 9A61     		str	r2, [r3, #24]
 852 0086 3B1D     		adds	r3, r7, #4
 853 0088 0122     		movs	r2, #1
 854 008a DA61     		str	r2, [r3, #28]
 855 008c 3B1D     		adds	r3, r7, #4
 856 008e 0222     		movs	r2, #2
 857 0090 1A62     		str	r2, [r3, #32]
 858 0092 3B1D     		adds	r3, r7, #4
 859 0094 0122     		movs	r2, #1
 860 0096 5A62     		str	r2, [r3, #36]
 351:main.c        ****     int indexPointer = 0;
 861              		.loc 1 351 0
 862 0098 0023     		movs	r3, #0
 863 009a C7F8C03F 		str	r3, [r7, #4032]
 352:main.c        ****     int queueSize = 12;
 864              		.loc 1 352 0
 865 009e 0C23     		movs	r3, #12
 866 00a0 C7F8B03F 		str	r3, [r7, #4016]
 353:main.c        ****     int motoerFlagSTOP=0;
 867              		.loc 1 353 0
 868 00a4 0023     		movs	r3, #0
 869 00a6 C7F8BC3F 		str	r3, [r7, #4028]
 870              	.L45:
 354:main.c        ****             
 355:main.c        ****     
 356:main.c        ****    ///////////////////////////////////////// LINE TRACKING////////
 357:main.c        ****     
 358:main.c        ****     while(1)
 359:main.c        ****     {
 360:main.c        ****         /* Place your application code here. */
 361:main.c        ****        
 362:main.c        ****         if (processSensors == 1) {
 871              		.loc 1 362 0
 872 00aa 674B     		ldr	r3, .L47+12
 873 00ac 1B68     		ldr	r3, [r3]
ARM GAS  C:\Users\smiy200\AppData\Local\Temp\ccS34b3j.s 			page 23


 874 00ae 012B     		cmp	r3, #1
 875 00b0 FBD1     		bne	.L45
 876              	.LBB3:
 363:main.c        ****             CYGlobalIntDisable;
 877              		.loc 1 363 0
 878              		.syntax unified
 879              	@ 363 "main.c" 1
 880 00b2 72B6     		CPSID   i
 881              	@ 0 "" 2
 364:main.c        ****                    
 365:main.c        ****             int operation = convertSensorBinary();
 882              		.loc 1 365 0
 883              		.thumb
 884              		.syntax unified
 885 00b4 FFF7FEFF 		bl	convertSensorBinary
 886 00b8 C7F8AC0F 		str	r0, [r7, #4012]
 366:main.c        ****             int backOps = convertBackBinary();
 887              		.loc 1 366 0
 888 00bc FFF7FEFF 		bl	convertBackBinary
 889 00c0 C7F8A80F 		str	r0, [r7, #4008]
 367:main.c        **** 
 368:main.c        ****                 switch(operation){
 890              		.loc 1 368 0
 891 00c4 D7F8AC3F 		ldr	r3, [r7, #4012]
 892 00c8 072B     		cmp	r3, #7
 893 00ca 49D8     		bhi	.L28
 894 00cc 01A2     		adr	r2, .L30
 895 00ce 52F823F0 		ldr	pc, [r2, r3, lsl #2]
 896 00d2 00BF     		.p2align 2
 897              	.L30:
 898 00d4 3B010000 		.word	.L29+1
 899 00d8 47010000 		.word	.L31+1
 900 00dc 61010000 		.word	.L28+1
 901 00e0 13010000 		.word	.L32+1
 902 00e4 53010000 		.word	.L33+1
 903 00e8 2F010000 		.word	.L34+1
 904 00ec 21010000 		.word	.L35+1
 905 00f0 F5000000 		.word	.L36+1
 906              		.p2align 1
 907              	.L36:
 369:main.c        ****                 //where 1 is on white, 0 is on black.
 370:main.c        ****                     
 371:main.c        ****                     case 7: // 111 // all under white\\
 372:main.c        ****                         
 373:main.c        ****                     
 374:main.c        ****                   
 375:main.c        ****                             if(backOps == 7){
 908              		.loc 1 375 0
 909 00f4 D7F8A83F 		ldr	r3, [r7, #4008]
 910 00f8 072B     		cmp	r3, #7
 911 00fa 03D1     		bne	.L37
 376:main.c        ****                                 
 377:main.c        ****                                  motorCircle(40);
 912              		.loc 1 377 0
 913 00fc 2820     		movs	r0, #40
 914 00fe FFF7FEFF 		bl	motorCircle
 378:main.c        ****                                 
ARM GAS  C:\Users\smiy200\AppData\Local\Temp\ccS34b3j.s 			page 24


 379:main.c        ****                             }
 380:main.c        ****                             
 381:main.c        ****                         
 382:main.c        ****                             else if(backOps == 5){
 383:main.c        ****                                 motorGoStraight();
 384:main.c        ****                             }   
 385:main.c        ****                             break;
 915              		.loc 1 385 0
 916 0102 2CE0     		b	.L46
 917              	.L37:
 382:main.c        ****                                 motorGoStraight();
 918              		.loc 1 382 0
 919 0104 D7F8A83F 		ldr	r3, [r7, #4008]
 920 0108 052B     		cmp	r3, #5
 921 010a 28D1     		bne	.L46
 383:main.c        ****                             }   
 922              		.loc 1 383 0
 923 010c FFF7FEFF 		bl	motorGoStraight
 924              		.loc 1 385 0
 925 0110 25E0     		b	.L46
 926              	.L32:
 386:main.c        ****                         
 387:main.c        ****                     case 3:// 0 1 1 // Q3 under black
 388:main.c        ****                         motorTurnLeft(70);//decrease go fast used to be 50 by 6
 927              		.loc 1 388 0
 928 0112 4620     		movs	r0, #70
 929 0114 FFF7FEFF 		bl	motorTurnLeft
 389:main.c        ****                         LED_Write(1);
 930              		.loc 1 389 0
 931 0118 0120     		movs	r0, #1
 932 011a FFF7FEFF 		bl	LED_Write
 390:main.c        ****                         break;    
 933              		.loc 1 390 0
 934 011e 1FE0     		b	.L28
 935              	.L35:
 391:main.c        ****                         
 392:main.c        ****                     case 6:// 1 1 0 // Q5 under black  
 393:main.c        ****                         motorTurnRight(180);//increase 200 by 6``
 936              		.loc 1 393 0
 937 0120 B420     		movs	r0, #180
 938 0122 FFF7FEFF 		bl	motorTurnRight
 394:main.c        ****                         LED_Write(1);
 939              		.loc 1 394 0
 940 0126 0120     		movs	r0, #1
 941 0128 FFF7FEFF 		bl	LED_Write
 395:main.c        ****                         break;
 942              		.loc 1 395 0
 943 012c 18E0     		b	.L28
 944              	.L34:
 396:main.c        ****                         
 397:main.c        ****                     case 5:// 101 // Q4 under black
 398:main.c        ****                         motorGoStraight();
 945              		.loc 1 398 0
 946 012e FFF7FEFF 		bl	motorGoStraight
 399:main.c        ****                         LED_Write(0);
 947              		.loc 1 399 0
 948 0132 0020     		movs	r0, #0
ARM GAS  C:\Users\smiy200\AppData\Local\Temp\ccS34b3j.s 			page 25


 949 0134 FFF7FEFF 		bl	LED_Write
 400:main.c        ****                         break;
 950              		.loc 1 400 0
 951 0138 12E0     		b	.L28
 952              	.L29:
 401:main.c        ****                     
 402:main.c        ****                     case 0:  // 000 // ALL UNDER black
 403:main.c        ****                         motorStop();
 953              		.loc 1 403 0
 954 013a FFF7FEFF 		bl	motorStop
 404:main.c        ****                         decisionflag = 1;
 955              		.loc 1 404 0
 956 013e 0123     		movs	r3, #1
 957 0140 C7F8C43F 		str	r3, [r7, #4036]
 405:main.c        ****                         break;
 958              		.loc 1 405 0
 959 0144 0CE0     		b	.L28
 960              	.L31:
 406:main.c        ****                     case 1: // 001 --> left intersection # 65 turn for 500s
 407:main.c        ****                         //lastState=1;
 408:main.c        ****                         motorStop();
 961              		.loc 1 408 0
 962 0146 FFF7FEFF 		bl	motorStop
 409:main.c        ****                         decisionflag = 1;
 963              		.loc 1 409 0
 964 014a 0123     		movs	r3, #1
 965 014c C7F8C43F 		str	r3, [r7, #4036]
 410:main.c        ****                         break;
 966              		.loc 1 410 0
 967 0150 06E0     		b	.L28
 968              	.L33:
 411:main.c        ****                     case 4: // 100 --> right intersection #180 turn for 500s
 412:main.c        ****                        // lastState=2;
 413:main.c        ****                         motorStop();
 969              		.loc 1 413 0
 970 0152 FFF7FEFF 		bl	motorStop
 414:main.c        ****                         decisionflag = 1;
 971              		.loc 1 414 0
 972 0156 0123     		movs	r3, #1
 973 0158 C7F8C43F 		str	r3, [r7, #4036]
 415:main.c        ****                         break;
 974              		.loc 1 415 0
 975 015c 00E0     		b	.L28
 976              	.L46:
 385:main.c        ****                         
 977              		.loc 1 385 0
 978 015e 00BF     		nop
 979              	.L28:
 416:main.c        ****                         
 417:main.c        ****                     
 418:main.c        ****                    
 419:main.c        ****                 
 420:main.c        ****                 }
 421:main.c        ****                 
 422:main.c        ****                 
 423:main.c        ****                 
 424:main.c        ****                 
ARM GAS  C:\Users\smiy200\AppData\Local\Temp\ccS34b3j.s 			page 26


 425:main.c        ****                 //make decision at intersection 
 426:main.c        ****                 if ((decisionflag == 1) && (motoerFlagSTOP == 0)){
 980              		.loc 1 426 0
 981 0160 D7F8C43F 		ldr	r3, [r7, #4036]
 982 0164 012B     		cmp	r3, #1
 983 0166 4FD1     		bne	.L39
 984              		.loc 1 426 0 is_stmt 0 discriminator 1
 985 0168 D7F8BC3F 		ldr	r3, [r7, #4028]
 986 016c 002B     		cmp	r3, #0
 987 016e 4BD1     		bne	.L39
 988              	.LBB4:
 427:main.c        ****                     //CYGlobalIntDisable;
 428:main.c        ****         
 429:main.c        ****                     
 430:main.c        ****                     //get overall size of array
 431:main.c        ****                     
 432:main.c        ****                     //0 - left, 1 -straight, 2 - right 
 433:main.c        ****                     
 434:main.c        ****                     int decision = queue[indexPointer];
 989              		.loc 1 434 0 is_stmt 1
 990 0170 3B1D     		adds	r3, r7, #4
 991 0172 D7F8C02F 		ldr	r2, [r7, #4032]
 992 0176 53F82230 		ldr	r3, [r3, r2, lsl #2]
 993 017a C7F8A43F 		str	r3, [r7, #4004]
 435:main.c        ****                     
 436:main.c        ****                     switch(decision) {
 994              		.loc 1 436 0
 995 017e D7F8A43F 		ldr	r3, [r7, #4004]
 996 0182 012B     		cmp	r3, #1
 997 0184 11D0     		beq	.L41
 998 0186 022B     		cmp	r3, #2
 999 0188 1CD0     		beq	.L42
 1000 018a 002B     		cmp	r3, #0
 1001 018c 28D1     		bne	.L40
 437:main.c        ****                       case 0:
 438:main.c        ****                         //turn left
 439:main.c        ****                         motorStop();
 1002              		.loc 1 439 0
 1003 018e FFF7FEFF 		bl	motorStop
 440:main.c        ****                         CyDelay(400);
 1004              		.loc 1 440 0
 1005 0192 4FF4C870 		mov	r0, #400
 1006 0196 FFF7FEFF 		bl	CyDelay
 441:main.c        ****                         motorTurnLeft(65);
 1007              		.loc 1 441 0
 1008 019a 4120     		movs	r0, #65
 1009 019c FFF7FEFF 		bl	motorTurnLeft
 442:main.c        ****                         CyDelay(500);
 1010              		.loc 1 442 0
 1011 01a0 4FF4FA70 		mov	r0, #500
 1012 01a4 FFF7FEFF 		bl	CyDelay
 443:main.c        ****                         
 444:main.c        ****                         break;
 1013              		.loc 1 444 0
 1014 01a8 1AE0     		b	.L40
 1015              	.L41:
 445:main.c        ****                       case 1:
ARM GAS  C:\Users\smiy200\AppData\Local\Temp\ccS34b3j.s 			page 27


 446:main.c        ****                         //go straight
 447:main.c        ****                         motorStop();
 1016              		.loc 1 447 0
 1017 01aa FFF7FEFF 		bl	motorStop
 448:main.c        ****                         CyDelay(400);
 1018              		.loc 1 448 0
 1019 01ae 4FF4C870 		mov	r0, #400
 1020 01b2 FFF7FEFF 		bl	CyDelay
 449:main.c        ****                         motorGoStraight();
 1021              		.loc 1 449 0
 1022 01b6 FFF7FEFF 		bl	motorGoStraight
 450:main.c        ****                         CyDelay(400);
 1023              		.loc 1 450 0
 1024 01ba 4FF4C870 		mov	r0, #400
 1025 01be FFF7FEFF 		bl	CyDelay
 451:main.c        ****                         
 452:main.c        ****                         break;
 1026              		.loc 1 452 0
 1027 01c2 0DE0     		b	.L40
 1028              	.L42:
 453:main.c        ****                       case 2:
 454:main.c        ****                         //turn right
 455:main.c        ****                         motorStop();
 1029              		.loc 1 455 0
 1030 01c4 FFF7FEFF 		bl	motorStop
 456:main.c        ****                         CyDelay(400);
 1031              		.loc 1 456 0
 1032 01c8 4FF4C870 		mov	r0, #400
 1033 01cc FFF7FEFF 		bl	CyDelay
 457:main.c        ****                         motorTurnRight(180);
 1034              		.loc 1 457 0
 1035 01d0 B420     		movs	r0, #180
 1036 01d2 FFF7FEFF 		bl	motorTurnRight
 458:main.c        ****                         CyDelay(500);
 1037              		.loc 1 458 0
 1038 01d6 4FF4FA70 		mov	r0, #500
 1039 01da FFF7FEFF 		bl	CyDelay
 459:main.c        ****                         
 460:main.c        ****                         break;
 1040              		.loc 1 460 0
 1041 01de 00BF     		nop
 1042              	.L40:
 461:main.c        ****                     }
 462:main.c        ****                     
 463:main.c        ****                     indexPointer++;
 1043              		.loc 1 463 0
 1044 01e0 D7F8C03F 		ldr	r3, [r7, #4032]
 1045 01e4 0133     		adds	r3, r3, #1
 1046 01e6 C7F8C03F 		str	r3, [r7, #4032]
 464:main.c        ****                     
 465:main.c        ****                     if (indexPointer+1 > queueSize ) {
 1047              		.loc 1 465 0
 1048 01ea D7F8C03F 		ldr	r3, [r7, #4032]
 1049 01ee 5A1C     		adds	r2, r3, #1
 1050 01f0 D7F8B03F 		ldr	r3, [r7, #4016]
 1051 01f4 9A42     		cmp	r2, r3
 1052 01f6 04DD     		ble	.L44
ARM GAS  C:\Users\smiy200\AppData\Local\Temp\ccS34b3j.s 			page 28


 466:main.c        ****                         motorStop();
 1053              		.loc 1 466 0
 1054 01f8 FFF7FEFF 		bl	motorStop
 467:main.c        ****                         motoerFlagSTOP = 1;
 1055              		.loc 1 467 0
 1056 01fc 0123     		movs	r3, #1
 1057 01fe C7F8BC3F 		str	r3, [r7, #4028]
 1058              	.L44:
 468:main.c        ****                         //while(1){};   
 469:main.c        ****                     }
 470:main.c        ****                     
 471:main.c        ****                     //reset decision
 472:main.c        ****                     decisionflag = 0;
 1059              		.loc 1 472 0
 1060 0202 0023     		movs	r3, #0
 1061 0204 C7F8C43F 		str	r3, [r7, #4036]
 1062              	.L39:
 1063              	.LBE4:
 473:main.c        ****         
 474:main.c        ****                 
 475:main.c        ****            //renable interrupt
 476:main.c        ****                 //CYGlobalIntEnable;
 477:main.c        ****             }
 478:main.c        ****             //reset variable.
 479:main.c        ****             processSensors = 0;
 1064              		.loc 1 479 0
 1065 0208 0F4B     		ldr	r3, .L47+12
 1066 020a 0022     		movs	r2, #0
 1067 020c 1A60     		str	r2, [r3]
 480:main.c        ****             //reset counter
 481:main.c        **** 
 482:main.c        ****              counteoc = 0;
 1068              		.loc 1 482 0
 1069 020e 0F4B     		ldr	r3, .L47+16
 1070 0210 0022     		movs	r2, #0
 1071 0212 1A60     		str	r2, [r3]
 483:main.c        ****             //reset flags for lightsensors because it checks every 10 iterations, adds delay/
 484:main.c        ****             lightDetectedFront[0] = 0;
 1072              		.loc 1 484 0
 1073 0214 0E4B     		ldr	r3, .L47+20
 1074 0216 0022     		movs	r2, #0
 1075 0218 1A60     		str	r2, [r3]
 485:main.c        ****             lightDetectedFront[1] = 0;
 1076              		.loc 1 485 0
 1077 021a 0D4B     		ldr	r3, .L47+20
 1078 021c 0022     		movs	r2, #0
 1079 021e 5A60     		str	r2, [r3, #4]
 486:main.c        ****             lightDetectedFront[2] = 0;
 1080              		.loc 1 486 0
 1081 0220 0B4B     		ldr	r3, .L47+20
 1082 0222 0022     		movs	r2, #0
 1083 0224 9A60     		str	r2, [r3, #8]
 487:main.c        ****             lightDetectedBack[0] = 0;
 1084              		.loc 1 487 0
 1085 0226 0B4B     		ldr	r3, .L47+24
 1086 0228 0022     		movs	r2, #0
 1087 022a 1A60     		str	r2, [r3]
ARM GAS  C:\Users\smiy200\AppData\Local\Temp\ccS34b3j.s 			page 29


 488:main.c        ****             lightDetectedBack[1] = 0;
 1088              		.loc 1 488 0
 1089 022c 094B     		ldr	r3, .L47+24
 1090 022e 0022     		movs	r2, #0
 1091 0230 5A60     		str	r2, [r3, #4]
 489:main.c        ****             lightDetectedBack[2] = 0;
 1092              		.loc 1 489 0
 1093 0232 084B     		ldr	r3, .L47+24
 1094 0234 0022     		movs	r2, #0
 1095 0236 9A60     		str	r2, [r3, #8]
 490:main.c        ****             
 491:main.c        ****             CYGlobalIntEnable;
 1096              		.loc 1 491 0
 1097              		.syntax unified
 1098              	@ 491 "main.c" 1
 1099 0238 62B6     		CPSIE   i
 1100              	@ 0 "" 2
 1101              		.thumb
 1102              		.syntax unified
 1103              	.LBE3:
 492:main.c        ****           
 493:main.c        ****         }
 494:main.c        ****         
 495:main.c        ****         
 496:main.c        ****     }   
 1104              		.loc 1 496 0
 1105 023a 36E7     		b	.L45
 1106              	.L48:
 1107              		.align	2
 1108              	.L47:
 1109 023c 44000000 		.word	count
 1110 0240 00000000 		.word	isr_TS_Interrupt_sample
 1111 0244 00000000 		.word	isr_eoc_Interrupt_test
 1112 0248 00000000 		.word	processSensors
 1113 024c 00000000 		.word	counteoc
 1114 0250 00000000 		.word	lightDetectedFront
 1115 0254 00000000 		.word	lightDetectedBack
 1116              		.cfi_endproc
 1117              	.LFE76:
 1118              		.size	main, .-main
 1119              		.section	.text.convertBackBinary,"ax",%progbits
 1120              		.align	2
 1121              		.global	convertBackBinary
 1122              		.thumb
 1123              		.thumb_func
 1124              		.type	convertBackBinary, %function
 1125              	convertBackBinary:
 1126              	.LFB77:
 497:main.c        ****     
 498:main.c        **** //////////////////////////////////////
 499:main.c        **** }
 500:main.c        **** 
 501:main.c        ****   
 502:main.c        **** 
 503:main.c        **** int convertBackBinary(){
 1127              		.loc 1 503 0
 1128              		.cfi_startproc
ARM GAS  C:\Users\smiy200\AppData\Local\Temp\ccS34b3j.s 			page 30


 1129              		@ args = 0, pretend = 0, frame = 16
 1130              		@ frame_needed = 1, uses_anonymous_args = 0
 1131              		@ link register save eliminated.
 1132 0000 80B4     		push	{r7}
 1133              		.cfi_def_cfa_offset 4
 1134              		.cfi_offset 7, -4
 1135 0002 85B0     		sub	sp, sp, #20
 1136              		.cfi_def_cfa_offset 24
 1137 0004 00AF     		add	r7, sp, #0
 1138              		.cfi_def_cfa_register 7
 504:main.c        **** 
 505:main.c        ****     int value1=0;
 1139              		.loc 1 505 0
 1140 0006 0023     		movs	r3, #0
 1141 0008 FB60     		str	r3, [r7, #12]
 506:main.c        ****     int Q1 = lightDetectedBack[1] ;
 1142              		.loc 1 506 0
 1143 000a 104B     		ldr	r3, .L51
 1144 000c 5B68     		ldr	r3, [r3, #4]
 1145 000e BB60     		str	r3, [r7, #8]
 507:main.c        ****     int Q2 = lightDetectedBack[2];
 1146              		.loc 1 507 0
 1147 0010 0E4B     		ldr	r3, .L51
 1148 0012 9B68     		ldr	r3, [r3, #8]
 1149 0014 7B60     		str	r3, [r7, #4]
 508:main.c        ****     int Q6 =lightDetectedBack[0];
 1150              		.loc 1 508 0
 1151 0016 0D4B     		ldr	r3, .L51
 1152 0018 1B68     		ldr	r3, [r3]
 1153 001a 3B60     		str	r3, [r7]
 509:main.c        ****     value1 =  value1 + lightDetectedBack[1] *2;
 1154              		.loc 1 509 0
 1155 001c 0B4B     		ldr	r3, .L51
 1156 001e 5B68     		ldr	r3, [r3, #4]
 1157 0020 5B00     		lsls	r3, r3, #1
 1158 0022 FA68     		ldr	r2, [r7, #12]
 1159 0024 1344     		add	r3, r3, r2
 1160 0026 FB60     		str	r3, [r7, #12]
 510:main.c        ****     value1 = value1 +  lightDetectedBack[2] *4;
 1161              		.loc 1 510 0
 1162 0028 084B     		ldr	r3, .L51
 1163 002a 9B68     		ldr	r3, [r3, #8]
 1164 002c 9B00     		lsls	r3, r3, #2
 1165 002e FA68     		ldr	r2, [r7, #12]
 1166 0030 1344     		add	r3, r3, r2
 1167 0032 FB60     		str	r3, [r7, #12]
 511:main.c        ****     value1 = value1 + lightDetectedBack[0] *1;
 1168              		.loc 1 511 0
 1169 0034 054B     		ldr	r3, .L51
 1170 0036 1B68     		ldr	r3, [r3]
 1171 0038 FA68     		ldr	r2, [r7, #12]
 1172 003a 1344     		add	r3, r3, r2
 1173 003c FB60     		str	r3, [r7, #12]
 512:main.c        **** 
 513:main.c        ****     return value1;
 1174              		.loc 1 513 0
 1175 003e FB68     		ldr	r3, [r7, #12]
ARM GAS  C:\Users\smiy200\AppData\Local\Temp\ccS34b3j.s 			page 31


 514:main.c        **** 
 515:main.c        **** }
 1176              		.loc 1 515 0
 1177 0040 1846     		mov	r0, r3
 1178 0042 1437     		adds	r7, r7, #20
 1179              		.cfi_def_cfa_offset 4
 1180 0044 BD46     		mov	sp, r7
 1181              		.cfi_def_cfa_register 13
 1182              		@ sp needed
 1183 0046 80BC     		pop	{r7}
 1184              		.cfi_restore 7
 1185              		.cfi_def_cfa_offset 0
 1186 0048 7047     		bx	lr
 1187              	.L52:
 1188 004a 00BF     		.align	2
 1189              	.L51:
 1190 004c 00000000 		.word	lightDetectedBack
 1191              		.cfi_endproc
 1192              	.LFE77:
 1193              		.size	convertBackBinary, .-convertBackBinary
 1194              		.section	.text.convertSensorBinary,"ax",%progbits
 1195              		.align	2
 1196              		.global	convertSensorBinary
 1197              		.thumb
 1198              		.thumb_func
 1199              		.type	convertSensorBinary, %function
 1200              	convertSensorBinary:
 1201              	.LFB78:
 516:main.c        **** 
 517:main.c        **** int convertSensorBinary()
 518:main.c        **** {
 1202              		.loc 1 518 0
 1203              		.cfi_startproc
 1204              		@ args = 0, pretend = 0, frame = 16
 1205              		@ frame_needed = 1, uses_anonymous_args = 0
 1206              		@ link register save eliminated.
 1207 0000 80B4     		push	{r7}
 1208              		.cfi_def_cfa_offset 4
 1209              		.cfi_offset 7, -4
 1210 0002 85B0     		sub	sp, sp, #20
 1211              		.cfi_def_cfa_offset 24
 1212 0004 00AF     		add	r7, sp, #0
 1213              		.cfi_def_cfa_register 7
 519:main.c        ****    int value=0;
 1214              		.loc 1 519 0
 1215 0006 0023     		movs	r3, #0
 1216 0008 FB60     		str	r3, [r7, #12]
 520:main.c        ****   int Q3 = lightDetectedFront[0];
 1217              		.loc 1 520 0
 1218 000a 104B     		ldr	r3, .L55
 1219 000c 1B68     		ldr	r3, [r3]
 1220 000e BB60     		str	r3, [r7, #8]
 521:main.c        ****   int Q4 = lightDetectedFront[1];
 1221              		.loc 1 521 0
 1222 0010 0E4B     		ldr	r3, .L55
 1223 0012 5B68     		ldr	r3, [r3, #4]
 1224 0014 7B60     		str	r3, [r7, #4]
ARM GAS  C:\Users\smiy200\AppData\Local\Temp\ccS34b3j.s 			page 32


 522:main.c        ****    int Q5 = lightDetectedFront[2];
 1225              		.loc 1 522 0
 1226 0016 0D4B     		ldr	r3, .L55
 1227 0018 9B68     		ldr	r3, [r3, #8]
 1228 001a 3B60     		str	r3, [r7]
 523:main.c        ****   value=value + lightDetectedFront[0]*4;
 1229              		.loc 1 523 0
 1230 001c 0B4B     		ldr	r3, .L55
 1231 001e 1B68     		ldr	r3, [r3]
 1232 0020 9B00     		lsls	r3, r3, #2
 1233 0022 FA68     		ldr	r2, [r7, #12]
 1234 0024 1344     		add	r3, r3, r2
 1235 0026 FB60     		str	r3, [r7, #12]
 524:main.c        ****   value=value + lightDetectedFront[1]*2;
 1236              		.loc 1 524 0
 1237 0028 084B     		ldr	r3, .L55
 1238 002a 5B68     		ldr	r3, [r3, #4]
 1239 002c 5B00     		lsls	r3, r3, #1
 1240 002e FA68     		ldr	r2, [r7, #12]
 1241 0030 1344     		add	r3, r3, r2
 1242 0032 FB60     		str	r3, [r7, #12]
 525:main.c        ****   value=value + lightDetectedFront[2]*1;
 1243              		.loc 1 525 0
 1244 0034 054B     		ldr	r3, .L55
 1245 0036 9B68     		ldr	r3, [r3, #8]
 1246 0038 FA68     		ldr	r2, [r7, #12]
 1247 003a 1344     		add	r3, r3, r2
 1248 003c FB60     		str	r3, [r7, #12]
 526:main.c        ****     return value;
 1249              		.loc 1 526 0
 1250 003e FB68     		ldr	r3, [r7, #12]
 527:main.c        **** }
 1251              		.loc 1 527 0
 1252 0040 1846     		mov	r0, r3
 1253 0042 1437     		adds	r7, r7, #20
 1254              		.cfi_def_cfa_offset 4
 1255 0044 BD46     		mov	sp, r7
 1256              		.cfi_def_cfa_register 13
 1257              		@ sp needed
 1258 0046 80BC     		pop	{r7}
 1259              		.cfi_restore 7
 1260              		.cfi_def_cfa_offset 0
 1261 0048 7047     		bx	lr
 1262              	.L56:
 1263 004a 00BF     		.align	2
 1264              	.L55:
 1265 004c 00000000 		.word	lightDetectedFront
 1266              		.cfi_endproc
 1267              	.LFE78:
 1268              		.size	convertSensorBinary, .-convertSensorBinary
 1269              		.section	.text.usbPutString,"ax",%progbits
 1270              		.align	2
 1271              		.global	usbPutString
 1272              		.thumb
 1273              		.thumb_func
 1274              		.type	usbPutString, %function
 1275              	usbPutString:
ARM GAS  C:\Users\smiy200\AppData\Local\Temp\ccS34b3j.s 			page 33


 1276              	.LFB79:
 528:main.c        **** //* ========================================
 529:main.c        **** void usbPutString(char *s)
 530:main.c        **** {
 1277              		.loc 1 530 0
 1278              		.cfi_startproc
 1279              		@ args = 0, pretend = 0, frame = 8
 1280              		@ frame_needed = 1, uses_anonymous_args = 0
 1281 0000 80B5     		push	{r7, lr}
 1282              		.cfi_def_cfa_offset 8
 1283              		.cfi_offset 7, -8
 1284              		.cfi_offset 14, -4
 1285 0002 82B0     		sub	sp, sp, #8
 1286              		.cfi_def_cfa_offset 16
 1287 0004 00AF     		add	r7, sp, #0
 1288              		.cfi_def_cfa_register 7
 1289 0006 7860     		str	r0, [r7, #4]
 531:main.c        **** // !! Assumes that *s is a string with allocated space >=64 chars     
 532:main.c        **** //  Since USB implementation retricts data packets to 64 chars, this function truncates the
 533:main.c        **** //  length to 62 char (63rd char is a '!')
 534:main.c        **** 
 535:main.c        **** #ifdef USE_USB     
 536:main.c        ****     while (USBUART_CDCIsReady() == 0);
 1290              		.loc 1 536 0
 1291 0008 00BF     		nop
 1292              	.L58:
 1293              		.loc 1 536 0 is_stmt 0 discriminator 1
 1294 000a FFF7FEFF 		bl	USBUART_CDCIsReady
 1295 000e 0346     		mov	r3, r0
 1296 0010 002B     		cmp	r3, #0
 1297 0012 FAD0     		beq	.L58
 537:main.c        ****     s[63]='\0';
 1298              		.loc 1 537 0 is_stmt 1
 1299 0014 7B68     		ldr	r3, [r7, #4]
 1300 0016 3F33     		adds	r3, r3, #63
 1301 0018 0022     		movs	r2, #0
 1302 001a 1A70     		strb	r2, [r3]
 538:main.c        ****     s[62]='!';
 1303              		.loc 1 538 0
 1304 001c 7B68     		ldr	r3, [r7, #4]
 1305 001e 3E33     		adds	r3, r3, #62
 1306 0020 2122     		movs	r2, #33
 1307 0022 1A70     		strb	r2, [r3]
 539:main.c        ****     USBUART_PutData((uint8*)s,strlen(s));
 1308              		.loc 1 539 0
 1309 0024 7868     		ldr	r0, [r7, #4]
 1310 0026 FFF7FEFF 		bl	strlen
 1311 002a 0346     		mov	r3, r0
 1312 002c 9BB2     		uxth	r3, r3
 1313 002e 1946     		mov	r1, r3
 1314 0030 7868     		ldr	r0, [r7, #4]
 1315 0032 FFF7FEFF 		bl	USBUART_PutData
 540:main.c        **** #endif
 541:main.c        **** }
 1316              		.loc 1 541 0
 1317 0036 00BF     		nop
 1318 0038 0837     		adds	r7, r7, #8
ARM GAS  C:\Users\smiy200\AppData\Local\Temp\ccS34b3j.s 			page 34


 1319              		.cfi_def_cfa_offset 8
 1320 003a BD46     		mov	sp, r7
 1321              		.cfi_def_cfa_register 13
 1322              		@ sp needed
 1323 003c 80BD     		pop	{r7, pc}
 1324              		.cfi_endproc
 1325              	.LFE79:
 1326              		.size	usbPutString, .-usbPutString
 1327 003e 00BF     		.section	.text.usbPutChar,"ax",%progbits
 1328              		.align	2
 1329              		.global	usbPutChar
 1330              		.thumb
 1331              		.thumb_func
 1332              		.type	usbPutChar, %function
 1333              	usbPutChar:
 1334              	.LFB80:
 542:main.c        **** //* ========================================
 543:main.c        **** void usbPutChar(char c)
 544:main.c        **** {
 1335              		.loc 1 544 0
 1336              		.cfi_startproc
 1337              		@ args = 0, pretend = 0, frame = 8
 1338              		@ frame_needed = 1, uses_anonymous_args = 0
 1339 0000 80B5     		push	{r7, lr}
 1340              		.cfi_def_cfa_offset 8
 1341              		.cfi_offset 7, -8
 1342              		.cfi_offset 14, -4
 1343 0002 82B0     		sub	sp, sp, #8
 1344              		.cfi_def_cfa_offset 16
 1345 0004 00AF     		add	r7, sp, #0
 1346              		.cfi_def_cfa_register 7
 1347 0006 0346     		mov	r3, r0
 1348 0008 FB71     		strb	r3, [r7, #7]
 545:main.c        **** #ifdef USE_USB     
 546:main.c        ****     while (USBUART_CDCIsReady() == 0);
 1349              		.loc 1 546 0
 1350 000a 00BF     		nop
 1351              	.L60:
 1352              		.loc 1 546 0 is_stmt 0 discriminator 1
 1353 000c FFF7FEFF 		bl	USBUART_CDCIsReady
 1354 0010 0346     		mov	r3, r0
 1355 0012 002B     		cmp	r3, #0
 1356 0014 FAD0     		beq	.L60
 547:main.c        ****     USBUART_PutChar(c);
 1357              		.loc 1 547 0 is_stmt 1
 1358 0016 FB79     		ldrb	r3, [r7, #7]	@ zero_extendqisi2
 1359 0018 1846     		mov	r0, r3
 1360 001a FFF7FEFF 		bl	USBUART_PutChar
 548:main.c        **** #endif    
 549:main.c        **** }
 1361              		.loc 1 549 0
 1362 001e 00BF     		nop
 1363 0020 0837     		adds	r7, r7, #8
 1364              		.cfi_def_cfa_offset 8
 1365 0022 BD46     		mov	sp, r7
 1366              		.cfi_def_cfa_register 13
 1367              		@ sp needed
ARM GAS  C:\Users\smiy200\AppData\Local\Temp\ccS34b3j.s 			page 35


 1368 0024 80BD     		pop	{r7, pc}
 1369              		.cfi_endproc
 1370              	.LFE80:
 1371              		.size	usbPutChar, .-usbPutChar
 1372 0026 00BF     		.section	.text.handle_usb,"ax",%progbits
 1373              		.align	2
 1374              		.global	handle_usb
 1375              		.thumb
 1376              		.thumb_func
 1377              		.type	handle_usb, %function
 1378              	handle_usb:
 1379              	.LFB81:
 550:main.c        **** //* ========================================
 551:main.c        **** void handle_usb()
 552:main.c        **** {
 1380              		.loc 1 552 0
 1381              		.cfi_startproc
 1382              		@ args = 0, pretend = 0, frame = 8
 1383              		@ frame_needed = 1, uses_anonymous_args = 0
 1384 0000 80B5     		push	{r7, lr}
 1385              		.cfi_def_cfa_offset 8
 1386              		.cfi_offset 7, -8
 1387              		.cfi_offset 14, -4
 1388 0002 82B0     		sub	sp, sp, #8
 1389              		.cfi_def_cfa_offset 16
 1390 0004 00AF     		add	r7, sp, #0
 1391              		.cfi_def_cfa_register 7
 553:main.c        ****     // handles input at terminal, echos it back to the terminal
 554:main.c        ****     // turn echo OFF, key emulation: only CR
 555:main.c        ****     // entered string is made available in 'line' and 'flag_KB_string' is set
 556:main.c        ****     
 557:main.c        ****     static uint8 usbStarted = FALSE;
 558:main.c        ****     static uint16 usbBufCount = 0;
 559:main.c        ****     uint8 c = 0; 
 1392              		.loc 1 559 0
 1393 0006 0023     		movs	r3, #0
 1394 0008 FB71     		strb	r3, [r7, #7]
 560:main.c        ****     
 561:main.c        **** 
 562:main.c        ****     if (!usbStarted)
 1395              		.loc 1 562 0
 1396 000a 2B4B     		ldr	r3, .L71
 1397 000c 1B78     		ldrb	r3, [r3]	@ zero_extendqisi2
 1398 000e 002B     		cmp	r3, #0
 1399 0010 0AD1     		bne	.L62
 563:main.c        ****     {
 564:main.c        ****         if (USBUART_GetConfiguration())
 1400              		.loc 1 564 0
 1401 0012 FFF7FEFF 		bl	USBUART_GetConfiguration
 1402 0016 0346     		mov	r3, r0
 1403 0018 002B     		cmp	r3, #0
 1404 001a 49D0     		beq	.L70
 565:main.c        ****         {
 566:main.c        ****             USBUART_CDC_Init();
 1405              		.loc 1 566 0
 1406 001c FFF7FEFF 		bl	USBUART_CDC_Init
 567:main.c        ****             usbStarted = TRUE;
ARM GAS  C:\Users\smiy200\AppData\Local\Temp\ccS34b3j.s 			page 36


 1407              		.loc 1 567 0
 1408 0020 254B     		ldr	r3, .L71
 1409 0022 0122     		movs	r2, #1
 1410 0024 1A70     		strb	r2, [r3]
 568:main.c        ****         }
 569:main.c        ****     }
 570:main.c        ****     else
 571:main.c        ****     {
 572:main.c        ****         if (USBUART_DataIsReady() != 0)
 573:main.c        ****         {  
 574:main.c        ****             c = USBUART_GetChar();
 575:main.c        **** 
 576:main.c        ****             if ((c == 13) || (c == 10))
 577:main.c        ****             {
 578:main.c        **** //                if (usbBufCount > 0)
 579:main.c        ****                 {
 580:main.c        ****                     entry[usbBufCount]= '\0';
 581:main.c        ****                     strcpy(line,entry);
 582:main.c        ****                     usbBufCount = 0;
 583:main.c        ****                     flag_KB_string = 1;
 584:main.c        ****                 }
 585:main.c        ****             }
 586:main.c        ****             else 
 587:main.c        ****             {
 588:main.c        ****                 if (((c == CHAR_BACKSP) || (c == CHAR_DEL) ) && (usbBufCount > 0) )
 589:main.c        ****                     usbBufCount--;
 590:main.c        ****                 else
 591:main.c        ****                 {
 592:main.c        ****                     if (usbBufCount > (BUF_SIZE-2) ) // one less else strtok triggers a crash
 593:main.c        ****                     {
 594:main.c        ****                        USBUART_PutChar('!');        
 595:main.c        ****                     }
 596:main.c        ****                     else
 597:main.c        ****                         entry[usbBufCount++] = c;  
 598:main.c        ****                 }  
 599:main.c        ****             }
 600:main.c        ****         }
 601:main.c        ****     }    
 602:main.c        **** }
 1411              		.loc 1 602 0
 1412 0026 43E0     		b	.L70
 1413              	.L62:
 572:main.c        ****         {  
 1414              		.loc 1 572 0
 1415 0028 FFF7FEFF 		bl	USBUART_DataIsReady
 1416 002c 0346     		mov	r3, r0
 1417 002e 002B     		cmp	r3, #0
 1418 0030 3ED0     		beq	.L70
 574:main.c        **** 
 1419              		.loc 1 574 0
 1420 0032 FFF7FEFF 		bl	USBUART_GetChar
 1421 0036 0346     		mov	r3, r0
 1422 0038 FB71     		strb	r3, [r7, #7]
 576:main.c        ****             {
 1423              		.loc 1 576 0
 1424 003a FB79     		ldrb	r3, [r7, #7]	@ zero_extendqisi2
 1425 003c 0D2B     		cmp	r3, #13
ARM GAS  C:\Users\smiy200\AppData\Local\Temp\ccS34b3j.s 			page 37


 1426 003e 02D0     		beq	.L65
 576:main.c        ****             {
 1427              		.loc 1 576 0 is_stmt 0 discriminator 1
 1428 0040 FB79     		ldrb	r3, [r7, #7]	@ zero_extendqisi2
 1429 0042 0A2B     		cmp	r3, #10
 1430 0044 10D1     		bne	.L66
 1431              	.L65:
 580:main.c        ****                     strcpy(line,entry);
 1432              		.loc 1 580 0 is_stmt 1
 1433 0046 1D4B     		ldr	r3, .L71+4
 1434 0048 1B88     		ldrh	r3, [r3]
 1435 004a 1A46     		mov	r2, r3
 1436 004c 1C4B     		ldr	r3, .L71+8
 1437 004e 0021     		movs	r1, #0
 1438 0050 9954     		strb	r1, [r3, r2]
 581:main.c        ****                     usbBufCount = 0;
 1439              		.loc 1 581 0
 1440 0052 1B49     		ldr	r1, .L71+8
 1441 0054 1B48     		ldr	r0, .L71+12
 1442 0056 FFF7FEFF 		bl	strcpy
 582:main.c        ****                     flag_KB_string = 1;
 1443              		.loc 1 582 0
 1444 005a 184B     		ldr	r3, .L71+4
 1445 005c 0022     		movs	r2, #0
 1446 005e 1A80     		strh	r2, [r3]	@ movhi
 583:main.c        ****                 }
 1447              		.loc 1 583 0
 1448 0060 194B     		ldr	r3, .L71+16
 1449 0062 0122     		movs	r2, #1
 1450 0064 1A70     		strb	r2, [r3]
 1451 0066 23E0     		b	.L64
 1452              	.L66:
 588:main.c        ****                     usbBufCount--;
 1453              		.loc 1 588 0
 1454 0068 FB79     		ldrb	r3, [r7, #7]	@ zero_extendqisi2
 1455 006a 082B     		cmp	r3, #8
 1456 006c 02D0     		beq	.L67
 588:main.c        ****                     usbBufCount--;
 1457              		.loc 1 588 0 is_stmt 0 discriminator 2
 1458 006e FB79     		ldrb	r3, [r7, #7]	@ zero_extendqisi2
 1459 0070 7F2B     		cmp	r3, #127
 1460 0072 0AD1     		bne	.L68
 1461              	.L67:
 588:main.c        ****                     usbBufCount--;
 1462              		.loc 1 588 0 discriminator 3
 1463 0074 114B     		ldr	r3, .L71+4
 1464 0076 1B88     		ldrh	r3, [r3]
 1465 0078 002B     		cmp	r3, #0
 1466 007a 06D0     		beq	.L68
 589:main.c        ****                 else
 1467              		.loc 1 589 0 is_stmt 1
 1468 007c 0F4B     		ldr	r3, .L71+4
 1469 007e 1B88     		ldrh	r3, [r3]
 1470 0080 013B     		subs	r3, r3, #1
 1471 0082 9AB2     		uxth	r2, r3
 1472 0084 0D4B     		ldr	r3, .L71+4
 1473 0086 1A80     		strh	r2, [r3]	@ movhi
ARM GAS  C:\Users\smiy200\AppData\Local\Temp\ccS34b3j.s 			page 38


 1474 0088 12E0     		b	.L64
 1475              	.L68:
 592:main.c        ****                     {
 1476              		.loc 1 592 0
 1477 008a 0C4B     		ldr	r3, .L71+4
 1478 008c 1B88     		ldrh	r3, [r3]
 1479 008e 3E2B     		cmp	r3, #62
 1480 0090 03D9     		bls	.L69
 594:main.c        ****                     }
 1481              		.loc 1 594 0
 1482 0092 2120     		movs	r0, #33
 1483 0094 FFF7FEFF 		bl	USBUART_PutChar
 1484              		.loc 1 602 0
 1485 0098 0AE0     		b	.L70
 1486              	.L69:
 597:main.c        ****                 }  
 1487              		.loc 1 597 0
 1488 009a 084B     		ldr	r3, .L71+4
 1489 009c 1B88     		ldrh	r3, [r3]
 1490 009e 5A1C     		adds	r2, r3, #1
 1491 00a0 91B2     		uxth	r1, r2
 1492 00a2 064A     		ldr	r2, .L71+4
 1493 00a4 1180     		strh	r1, [r2]	@ movhi
 1494 00a6 1946     		mov	r1, r3
 1495 00a8 054A     		ldr	r2, .L71+8
 1496 00aa FB79     		ldrb	r3, [r7, #7]
 1497 00ac 5354     		strb	r3, [r2, r1]
 1498              		.loc 1 602 0
 1499 00ae FFE7     		b	.L70
 1500              	.L64:
 1501              	.L70:
 1502 00b0 00BF     		nop
 1503 00b2 0837     		adds	r7, r7, #8
 1504              		.cfi_def_cfa_offset 8
 1505 00b4 BD46     		mov	sp, r7
 1506              		.cfi_def_cfa_register 13
 1507              		@ sp needed
 1508 00b6 80BD     		pop	{r7, pc}
 1509              	.L72:
 1510              		.align	2
 1511              	.L71:
 1512 00b8 45000000 		.word	usbStarted.8825
 1513 00bc 46000000 		.word	usbBufCount.8826
 1514 00c0 00000000 		.word	entry
 1515 00c4 00000000 		.word	line
 1516 00c8 00000000 		.word	flag_KB_string
 1517              		.cfi_endproc
 1518              	.LFE81:
 1519              		.size	handle_usb, .-handle_usb
 1520              		.bss
 1521              	usbStarted.8825:
 1522 0045 00       		.space	1
 1523              		.align	1
 1524              	usbBufCount.8826:
 1525 0046 0000     		.space	2
 1526              		.text
 1527              	.Letext0:
ARM GAS  C:\Users\smiy200\AppData\Local\Temp\ccS34b3j.s 			page 39


 1528              		.file 2 "c:\\program files (x86)\\cypress\\psoc creator\\4.2\\psoc creator\\import\\gnu\\arm\\5.4.
 1529              		.file 3 "c:\\program files (x86)\\cypress\\psoc creator\\4.2\\psoc creator\\import\\gnu\\arm\\5.4.
 1530              		.file 4 "Generated_Source\\PSoC5/cytypes.h"
 1531              		.file 5 "vars.h"
 1532              		.file 6 "Generated_Source\\PSoC5/core_cm3.h"