ARM GAS  C:\Users\smiy200\AppData\Local\Temp\ccOil1nG.s 			page 1


   1              		.syntax unified
   2              		.cpu cortex-m3
   3              		.fpu softvfp
   4              		.eabi_attribute 20, 1
   5              		.eabi_attribute 21, 1
   6              		.eabi_attribute 23, 3
   7              		.eabi_attribute 24, 1
   8              		.eabi_attribute 25, 1
   9              		.eabi_attribute 26, 1
  10              		.eabi_attribute 30, 1
  11              		.eabi_attribute 34, 1
  12              		.eabi_attribute 18, 4
  13              		.thumb
  14              		.syntax unified
  15              		.file	"isr_1.c"
  16              		.text
  17              	.Ltext0:
  18              		.cfi_sections	.debug_frame
  19              		.section	.text.isr_1_SetVector,"ax",%progbits
  20              		.align	2
  21              		.global	isr_1_SetVector
  22              		.thumb
  23              		.thumb_func
  24              		.type	isr_1_SetVector, %function
  25              	isr_1_SetVector:
  26              	.LFB3:
  27              		.file 1 "Generated_Source\\PSoC5\\isr_1.c"
   1:Generated_Source\PSoC5/isr_1.c **** /*******************************************************************************
   2:Generated_Source\PSoC5/isr_1.c **** * File Name: isr_1.c  
   3:Generated_Source\PSoC5/isr_1.c **** * Version 1.70
   4:Generated_Source\PSoC5/isr_1.c **** *
   5:Generated_Source\PSoC5/isr_1.c **** *  Description:
   6:Generated_Source\PSoC5/isr_1.c **** *   API for controlling the state of an interrupt.
   7:Generated_Source\PSoC5/isr_1.c **** *
   8:Generated_Source\PSoC5/isr_1.c **** *
   9:Generated_Source\PSoC5/isr_1.c **** *  Note:
  10:Generated_Source\PSoC5/isr_1.c **** *
  11:Generated_Source\PSoC5/isr_1.c **** ********************************************************************************
  12:Generated_Source\PSoC5/isr_1.c **** * Copyright 2008-2015, Cypress Semiconductor Corporation.  All rights reserved.
  13:Generated_Source\PSoC5/isr_1.c **** * You may use this file only in accordance with the license, terms, conditions, 
  14:Generated_Source\PSoC5/isr_1.c **** * disclaimers, and limitations in the end user license agreement accompanying 
  15:Generated_Source\PSoC5/isr_1.c **** * the software package with which this file was provided.
  16:Generated_Source\PSoC5/isr_1.c **** *******************************************************************************/
  17:Generated_Source\PSoC5/isr_1.c **** 
  18:Generated_Source\PSoC5/isr_1.c **** 
  19:Generated_Source\PSoC5/isr_1.c **** #include <cydevice_trm.h>
  20:Generated_Source\PSoC5/isr_1.c **** #include <CyLib.h>
  21:Generated_Source\PSoC5/isr_1.c **** #include <isr_1.h>
  22:Generated_Source\PSoC5/isr_1.c **** #include "cyapicallbacks.h"
  23:Generated_Source\PSoC5/isr_1.c **** 
  24:Generated_Source\PSoC5/isr_1.c **** #if !defined(isr_1__REMOVED) /* Check for removal by optimization */
  25:Generated_Source\PSoC5/isr_1.c **** 
  26:Generated_Source\PSoC5/isr_1.c **** /*******************************************************************************
  27:Generated_Source\PSoC5/isr_1.c **** *  Place your includes, defines and code here 
  28:Generated_Source\PSoC5/isr_1.c **** ********************************************************************************/
  29:Generated_Source\PSoC5/isr_1.c **** /* `#START isr_1_intc` */
  30:Generated_Source\PSoC5/isr_1.c **** 
ARM GAS  C:\Users\smiy200\AppData\Local\Temp\ccOil1nG.s 			page 2


  31:Generated_Source\PSoC5/isr_1.c **** /* `#END` */
  32:Generated_Source\PSoC5/isr_1.c **** 
  33:Generated_Source\PSoC5/isr_1.c **** #ifndef CYINT_IRQ_BASE
  34:Generated_Source\PSoC5/isr_1.c **** #define CYINT_IRQ_BASE      16
  35:Generated_Source\PSoC5/isr_1.c **** #endif /* CYINT_IRQ_BASE */
  36:Generated_Source\PSoC5/isr_1.c **** #ifndef CYINT_VECT_TABLE
  37:Generated_Source\PSoC5/isr_1.c **** #define CYINT_VECT_TABLE    ((cyisraddress **) CYREG_NVIC_VECT_OFFSET)
  38:Generated_Source\PSoC5/isr_1.c **** #endif /* CYINT_VECT_TABLE */
  39:Generated_Source\PSoC5/isr_1.c **** 
  40:Generated_Source\PSoC5/isr_1.c **** /* Declared in startup, used to set unused interrupts to. */
  41:Generated_Source\PSoC5/isr_1.c **** CY_ISR_PROTO(IntDefaultHandler);
  42:Generated_Source\PSoC5/isr_1.c **** 
  43:Generated_Source\PSoC5/isr_1.c **** 
  44:Generated_Source\PSoC5/isr_1.c **** /*******************************************************************************
  45:Generated_Source\PSoC5/isr_1.c **** * Function Name: isr_1_Start
  46:Generated_Source\PSoC5/isr_1.c **** ********************************************************************************
  47:Generated_Source\PSoC5/isr_1.c **** *
  48:Generated_Source\PSoC5/isr_1.c **** * Summary:
  49:Generated_Source\PSoC5/isr_1.c **** *  Set up the interrupt and enable it. This function disables the interrupt, 
  50:Generated_Source\PSoC5/isr_1.c **** *  sets the default interrupt vector, sets the priority from the value in the
  51:Generated_Source\PSoC5/isr_1.c **** *  Design Wide Resources Interrupt Editor, then enables the interrupt to the 
  52:Generated_Source\PSoC5/isr_1.c **** *  interrupt controller.
  53:Generated_Source\PSoC5/isr_1.c **** *
  54:Generated_Source\PSoC5/isr_1.c **** * Parameters:  
  55:Generated_Source\PSoC5/isr_1.c **** *   None
  56:Generated_Source\PSoC5/isr_1.c **** *
  57:Generated_Source\PSoC5/isr_1.c **** * Return:
  58:Generated_Source\PSoC5/isr_1.c **** *   None
  59:Generated_Source\PSoC5/isr_1.c **** *
  60:Generated_Source\PSoC5/isr_1.c **** *******************************************************************************/
  61:Generated_Source\PSoC5/isr_1.c **** void isr_1_Start(void)
  62:Generated_Source\PSoC5/isr_1.c **** {
  63:Generated_Source\PSoC5/isr_1.c ****     /* For all we know the interrupt is active. */
  64:Generated_Source\PSoC5/isr_1.c ****     isr_1_Disable();
  65:Generated_Source\PSoC5/isr_1.c **** 
  66:Generated_Source\PSoC5/isr_1.c ****     /* Set the ISR to point to the isr_1 Interrupt. */
  67:Generated_Source\PSoC5/isr_1.c ****     isr_1_SetVector(&isr_1_Interrupt);
  68:Generated_Source\PSoC5/isr_1.c **** 
  69:Generated_Source\PSoC5/isr_1.c ****     /* Set the priority. */
  70:Generated_Source\PSoC5/isr_1.c ****     isr_1_SetPriority((uint8)isr_1_INTC_PRIOR_NUMBER);
  71:Generated_Source\PSoC5/isr_1.c **** 
  72:Generated_Source\PSoC5/isr_1.c ****     /* Enable it. */
  73:Generated_Source\PSoC5/isr_1.c ****     isr_1_Enable();
  74:Generated_Source\PSoC5/isr_1.c **** }
  75:Generated_Source\PSoC5/isr_1.c **** 
  76:Generated_Source\PSoC5/isr_1.c **** 
  77:Generated_Source\PSoC5/isr_1.c **** /*******************************************************************************
  78:Generated_Source\PSoC5/isr_1.c **** * Function Name: isr_1_StartEx
  79:Generated_Source\PSoC5/isr_1.c **** ********************************************************************************
  80:Generated_Source\PSoC5/isr_1.c **** *
  81:Generated_Source\PSoC5/isr_1.c **** * Summary:
  82:Generated_Source\PSoC5/isr_1.c **** *  Sets up the interrupt and enables it. This function disables the interrupt,
  83:Generated_Source\PSoC5/isr_1.c **** *  sets the interrupt vector based on the address passed in, sets the priority 
  84:Generated_Source\PSoC5/isr_1.c **** *  from the value in the Design Wide Resources Interrupt Editor, then enables 
  85:Generated_Source\PSoC5/isr_1.c **** *  the interrupt to the interrupt controller.
  86:Generated_Source\PSoC5/isr_1.c **** *  
  87:Generated_Source\PSoC5/isr_1.c **** *  When defining ISR functions, the CY_ISR and CY_ISR_PROTO macros should be 
ARM GAS  C:\Users\smiy200\AppData\Local\Temp\ccOil1nG.s 			page 3


  88:Generated_Source\PSoC5/isr_1.c **** *  used to provide consistent definition across compilers:
  89:Generated_Source\PSoC5/isr_1.c **** *  
  90:Generated_Source\PSoC5/isr_1.c **** *  Function definition example:
  91:Generated_Source\PSoC5/isr_1.c **** *   CY_ISR(MyISR)
  92:Generated_Source\PSoC5/isr_1.c **** *   {
  93:Generated_Source\PSoC5/isr_1.c **** *   }
  94:Generated_Source\PSoC5/isr_1.c **** *   Function prototype example:
  95:Generated_Source\PSoC5/isr_1.c **** *   CY_ISR_PROTO(MyISR);
  96:Generated_Source\PSoC5/isr_1.c **** *
  97:Generated_Source\PSoC5/isr_1.c **** * Parameters:  
  98:Generated_Source\PSoC5/isr_1.c **** *   address: Address of the ISR to set in the interrupt vector table.
  99:Generated_Source\PSoC5/isr_1.c **** *
 100:Generated_Source\PSoC5/isr_1.c **** * Return:
 101:Generated_Source\PSoC5/isr_1.c **** *   None
 102:Generated_Source\PSoC5/isr_1.c **** *
 103:Generated_Source\PSoC5/isr_1.c **** *******************************************************************************/
 104:Generated_Source\PSoC5/isr_1.c **** void isr_1_StartEx(cyisraddress address)
 105:Generated_Source\PSoC5/isr_1.c **** {
 106:Generated_Source\PSoC5/isr_1.c ****     /* For all we know the interrupt is active. */
 107:Generated_Source\PSoC5/isr_1.c ****     isr_1_Disable();
 108:Generated_Source\PSoC5/isr_1.c **** 
 109:Generated_Source\PSoC5/isr_1.c ****     /* Set the ISR to point to the isr_1 Interrupt. */
 110:Generated_Source\PSoC5/isr_1.c ****     isr_1_SetVector(address);
 111:Generated_Source\PSoC5/isr_1.c **** 
 112:Generated_Source\PSoC5/isr_1.c ****     /* Set the priority. */
 113:Generated_Source\PSoC5/isr_1.c ****     isr_1_SetPriority((uint8)isr_1_INTC_PRIOR_NUMBER);
 114:Generated_Source\PSoC5/isr_1.c **** 
 115:Generated_Source\PSoC5/isr_1.c ****     /* Enable it. */
 116:Generated_Source\PSoC5/isr_1.c ****     isr_1_Enable();
 117:Generated_Source\PSoC5/isr_1.c **** }
 118:Generated_Source\PSoC5/isr_1.c **** 
 119:Generated_Source\PSoC5/isr_1.c **** 
 120:Generated_Source\PSoC5/isr_1.c **** /*******************************************************************************
 121:Generated_Source\PSoC5/isr_1.c **** * Function Name: isr_1_Stop
 122:Generated_Source\PSoC5/isr_1.c **** ********************************************************************************
 123:Generated_Source\PSoC5/isr_1.c **** *
 124:Generated_Source\PSoC5/isr_1.c **** * Summary:
 125:Generated_Source\PSoC5/isr_1.c **** *   Disables and removes the interrupt.
 126:Generated_Source\PSoC5/isr_1.c **** *
 127:Generated_Source\PSoC5/isr_1.c **** * Parameters:  
 128:Generated_Source\PSoC5/isr_1.c **** *   None
 129:Generated_Source\PSoC5/isr_1.c **** *
 130:Generated_Source\PSoC5/isr_1.c **** * Return:
 131:Generated_Source\PSoC5/isr_1.c **** *   None
 132:Generated_Source\PSoC5/isr_1.c **** *
 133:Generated_Source\PSoC5/isr_1.c **** *******************************************************************************/
 134:Generated_Source\PSoC5/isr_1.c **** void isr_1_Stop(void)
 135:Generated_Source\PSoC5/isr_1.c **** {
 136:Generated_Source\PSoC5/isr_1.c ****     /* Disable this interrupt. */
 137:Generated_Source\PSoC5/isr_1.c ****     isr_1_Disable();
 138:Generated_Source\PSoC5/isr_1.c **** 
 139:Generated_Source\PSoC5/isr_1.c ****     /* Set the ISR to point to the passive one. */
 140:Generated_Source\PSoC5/isr_1.c ****     isr_1_SetVector(&IntDefaultHandler);
 141:Generated_Source\PSoC5/isr_1.c **** }
 142:Generated_Source\PSoC5/isr_1.c **** 
 143:Generated_Source\PSoC5/isr_1.c **** 
 144:Generated_Source\PSoC5/isr_1.c **** /*******************************************************************************
ARM GAS  C:\Users\smiy200\AppData\Local\Temp\ccOil1nG.s 			page 4


 145:Generated_Source\PSoC5/isr_1.c **** * Function Name: isr_1_Interrupt
 146:Generated_Source\PSoC5/isr_1.c **** ********************************************************************************
 147:Generated_Source\PSoC5/isr_1.c **** *
 148:Generated_Source\PSoC5/isr_1.c **** * Summary:
 149:Generated_Source\PSoC5/isr_1.c **** *   The default Interrupt Service Routine for isr_1.
 150:Generated_Source\PSoC5/isr_1.c **** *
 151:Generated_Source\PSoC5/isr_1.c **** *   Add custom code between the coments to keep the next version of this file
 152:Generated_Source\PSoC5/isr_1.c **** *   from over writting your code.
 153:Generated_Source\PSoC5/isr_1.c **** *
 154:Generated_Source\PSoC5/isr_1.c **** * Parameters:  
 155:Generated_Source\PSoC5/isr_1.c **** *
 156:Generated_Source\PSoC5/isr_1.c **** * Return:
 157:Generated_Source\PSoC5/isr_1.c **** *   None
 158:Generated_Source\PSoC5/isr_1.c **** *
 159:Generated_Source\PSoC5/isr_1.c **** *******************************************************************************/
 160:Generated_Source\PSoC5/isr_1.c **** 
 161:Generated_Source\PSoC5/isr_1.c **** 
 162:Generated_Source\PSoC5/isr_1.c **** 
 163:Generated_Source\PSoC5/isr_1.c **** /*******************************************************************************
 164:Generated_Source\PSoC5/isr_1.c **** * Function Name: isr_1_SetVector
 165:Generated_Source\PSoC5/isr_1.c **** ********************************************************************************
 166:Generated_Source\PSoC5/isr_1.c **** *
 167:Generated_Source\PSoC5/isr_1.c **** * Summary:
 168:Generated_Source\PSoC5/isr_1.c **** *   Change the ISR vector for the Interrupt. Note calling isr_1_Start
 169:Generated_Source\PSoC5/isr_1.c **** *   will override any effect this method would have had. To set the vector 
 170:Generated_Source\PSoC5/isr_1.c **** *   before the component has been started use isr_1_StartEx instead.
 171:Generated_Source\PSoC5/isr_1.c **** * 
 172:Generated_Source\PSoC5/isr_1.c **** *   When defining ISR functions, the CY_ISR and CY_ISR_PROTO macros should be 
 173:Generated_Source\PSoC5/isr_1.c **** *   used to provide consistent definition across compilers:
 174:Generated_Source\PSoC5/isr_1.c **** *
 175:Generated_Source\PSoC5/isr_1.c **** *   Function definition example:
 176:Generated_Source\PSoC5/isr_1.c **** *   CY_ISR(MyISR)
 177:Generated_Source\PSoC5/isr_1.c **** *   {
 178:Generated_Source\PSoC5/isr_1.c **** *   }
 179:Generated_Source\PSoC5/isr_1.c **** *
 180:Generated_Source\PSoC5/isr_1.c **** *   Function prototype example:
 181:Generated_Source\PSoC5/isr_1.c **** *     CY_ISR_PROTO(MyISR);
 182:Generated_Source\PSoC5/isr_1.c **** *
 183:Generated_Source\PSoC5/isr_1.c **** * Parameters:
 184:Generated_Source\PSoC5/isr_1.c **** *   address: Address of the ISR to set in the interrupt vector table.
 185:Generated_Source\PSoC5/isr_1.c **** *
 186:Generated_Source\PSoC5/isr_1.c **** * Return:
 187:Generated_Source\PSoC5/isr_1.c **** *   None
 188:Generated_Source\PSoC5/isr_1.c **** *
 189:Generated_Source\PSoC5/isr_1.c **** *******************************************************************************/
 190:Generated_Source\PSoC5/isr_1.c **** void isr_1_SetVector(cyisraddress address)
 191:Generated_Source\PSoC5/isr_1.c **** {
  28              		.loc 1 191 0
  29              		.cfi_startproc
  30              		@ args = 0, pretend = 0, frame = 0
  31              		@ frame_needed = 0, uses_anonymous_args = 0
  32              		@ link register save eliminated.
  33              	.LVL0:
 192:Generated_Source\PSoC5/isr_1.c ****     cyisraddress * ramVectorTable;
 193:Generated_Source\PSoC5/isr_1.c **** 
 194:Generated_Source\PSoC5/isr_1.c ****     ramVectorTable = (cyisraddress *) *CYINT_VECT_TABLE;
  34              		.loc 1 194 0
ARM GAS  C:\Users\smiy200\AppData\Local\Temp\ccOil1nG.s 			page 5


  35 0000 014B     		ldr	r3, .L2
  36 0002 1B68     		ldr	r3, [r3]
  37              	.LVL1:
 195:Generated_Source\PSoC5/isr_1.c **** 
 196:Generated_Source\PSoC5/isr_1.c ****     ramVectorTable[CYINT_IRQ_BASE + (uint32)isr_1__INTC_NUMBER] = address;
  38              		.loc 1 196 0
  39 0004 1865     		str	r0, [r3, #80]
  40 0006 7047     		bx	lr
  41              	.L3:
  42              		.align	2
  43              	.L2:
  44 0008 08ED00E0 		.word	-536810232
  45              		.cfi_endproc
  46              	.LFE3:
  47              		.size	isr_1_SetVector, .-isr_1_SetVector
  48              		.section	.text.isr_1_GetVector,"ax",%progbits
  49              		.align	2
  50              		.global	isr_1_GetVector
  51              		.thumb
  52              		.thumb_func
  53              		.type	isr_1_GetVector, %function
  54              	isr_1_GetVector:
  55              	.LFB4:
 197:Generated_Source\PSoC5/isr_1.c **** }
 198:Generated_Source\PSoC5/isr_1.c **** 
 199:Generated_Source\PSoC5/isr_1.c **** 
 200:Generated_Source\PSoC5/isr_1.c **** /*******************************************************************************
 201:Generated_Source\PSoC5/isr_1.c **** * Function Name: isr_1_GetVector
 202:Generated_Source\PSoC5/isr_1.c **** ********************************************************************************
 203:Generated_Source\PSoC5/isr_1.c **** *
 204:Generated_Source\PSoC5/isr_1.c **** * Summary:
 205:Generated_Source\PSoC5/isr_1.c **** *   Gets the "address" of the current ISR vector for the Interrupt.
 206:Generated_Source\PSoC5/isr_1.c **** *
 207:Generated_Source\PSoC5/isr_1.c **** * Parameters:
 208:Generated_Source\PSoC5/isr_1.c **** *   None
 209:Generated_Source\PSoC5/isr_1.c **** *
 210:Generated_Source\PSoC5/isr_1.c **** * Return:
 211:Generated_Source\PSoC5/isr_1.c **** *   Address of the ISR in the interrupt vector table.
 212:Generated_Source\PSoC5/isr_1.c **** *
 213:Generated_Source\PSoC5/isr_1.c **** *******************************************************************************/
 214:Generated_Source\PSoC5/isr_1.c **** cyisraddress isr_1_GetVector(void)
 215:Generated_Source\PSoC5/isr_1.c **** {
  56              		.loc 1 215 0
  57              		.cfi_startproc
  58              		@ args = 0, pretend = 0, frame = 0
  59              		@ frame_needed = 0, uses_anonymous_args = 0
  60              		@ link register save eliminated.
 216:Generated_Source\PSoC5/isr_1.c ****     cyisraddress * ramVectorTable;
 217:Generated_Source\PSoC5/isr_1.c **** 
 218:Generated_Source\PSoC5/isr_1.c ****     ramVectorTable = (cyisraddress *) *CYINT_VECT_TABLE;
  61              		.loc 1 218 0
  62 0000 014B     		ldr	r3, .L5
  63 0002 1B68     		ldr	r3, [r3]
  64              	.LVL2:
 219:Generated_Source\PSoC5/isr_1.c **** 
 220:Generated_Source\PSoC5/isr_1.c ****     return ramVectorTable[CYINT_IRQ_BASE + (uint32)isr_1__INTC_NUMBER];
 221:Generated_Source\PSoC5/isr_1.c **** }
ARM GAS  C:\Users\smiy200\AppData\Local\Temp\ccOil1nG.s 			page 6


  65              		.loc 1 221 0
  66 0004 186D     		ldr	r0, [r3, #80]
  67 0006 7047     		bx	lr
  68              	.L6:
  69              		.align	2
  70              	.L5:
  71 0008 08ED00E0 		.word	-536810232
  72              		.cfi_endproc
  73              	.LFE4:
  74              		.size	isr_1_GetVector, .-isr_1_GetVector
  75              		.section	.text.isr_1_SetPriority,"ax",%progbits
  76              		.align	2
  77              		.global	isr_1_SetPriority
  78              		.thumb
  79              		.thumb_func
  80              		.type	isr_1_SetPriority, %function
  81              	isr_1_SetPriority:
  82              	.LFB5:
 222:Generated_Source\PSoC5/isr_1.c **** 
 223:Generated_Source\PSoC5/isr_1.c **** 
 224:Generated_Source\PSoC5/isr_1.c **** /*******************************************************************************
 225:Generated_Source\PSoC5/isr_1.c **** * Function Name: isr_1_SetPriority
 226:Generated_Source\PSoC5/isr_1.c **** ********************************************************************************
 227:Generated_Source\PSoC5/isr_1.c **** *
 228:Generated_Source\PSoC5/isr_1.c **** * Summary:
 229:Generated_Source\PSoC5/isr_1.c **** *   Sets the Priority of the Interrupt. 
 230:Generated_Source\PSoC5/isr_1.c **** *
 231:Generated_Source\PSoC5/isr_1.c **** *   Note calling isr_1_Start or isr_1_StartEx will 
 232:Generated_Source\PSoC5/isr_1.c **** *   override any effect this API would have had. This API should only be called
 233:Generated_Source\PSoC5/isr_1.c **** *   after isr_1_Start or isr_1_StartEx has been called. 
 234:Generated_Source\PSoC5/isr_1.c **** *   To set the initial priority for the component, use the Design-Wide Resources
 235:Generated_Source\PSoC5/isr_1.c **** *   Interrupt Editor.
 236:Generated_Source\PSoC5/isr_1.c **** *
 237:Generated_Source\PSoC5/isr_1.c **** *   Note This API has no effect on Non-maskable interrupt NMI).
 238:Generated_Source\PSoC5/isr_1.c **** *
 239:Generated_Source\PSoC5/isr_1.c **** * Parameters:
 240:Generated_Source\PSoC5/isr_1.c **** *   priority: Priority of the interrupt, 0 being the highest priority
 241:Generated_Source\PSoC5/isr_1.c **** *             PSoC 3 and PSoC 5LP: Priority is from 0 to 7.
 242:Generated_Source\PSoC5/isr_1.c **** *             PSoC 4: Priority is from 0 to 3.
 243:Generated_Source\PSoC5/isr_1.c **** *
 244:Generated_Source\PSoC5/isr_1.c **** * Return:
 245:Generated_Source\PSoC5/isr_1.c **** *   None
 246:Generated_Source\PSoC5/isr_1.c **** *
 247:Generated_Source\PSoC5/isr_1.c **** *******************************************************************************/
 248:Generated_Source\PSoC5/isr_1.c **** void isr_1_SetPriority(uint8 priority)
 249:Generated_Source\PSoC5/isr_1.c **** {
  83              		.loc 1 249 0
  84              		.cfi_startproc
  85              		@ args = 0, pretend = 0, frame = 0
  86              		@ frame_needed = 0, uses_anonymous_args = 0
  87              		@ link register save eliminated.
  88              	.LVL3:
 250:Generated_Source\PSoC5/isr_1.c ****     *isr_1_INTC_PRIOR = priority << 5;
  89              		.loc 1 250 0
  90 0000 4001     		lsls	r0, r0, #5
  91              	.LVL4:
  92 0002 C0B2     		uxtb	r0, r0
ARM GAS  C:\Users\smiy200\AppData\Local\Temp\ccOil1nG.s 			page 7


  93 0004 014B     		ldr	r3, .L8
  94 0006 1870     		strb	r0, [r3]
  95 0008 7047     		bx	lr
  96              	.L9:
  97 000a 00BF     		.align	2
  98              	.L8:
  99 000c 04E400E0 		.word	-536812540
 100              		.cfi_endproc
 101              	.LFE5:
 102              		.size	isr_1_SetPriority, .-isr_1_SetPriority
 103              		.section	.text.isr_1_GetPriority,"ax",%progbits
 104              		.align	2
 105              		.global	isr_1_GetPriority
 106              		.thumb
 107              		.thumb_func
 108              		.type	isr_1_GetPriority, %function
 109              	isr_1_GetPriority:
 110              	.LFB6:
 251:Generated_Source\PSoC5/isr_1.c **** }
 252:Generated_Source\PSoC5/isr_1.c **** 
 253:Generated_Source\PSoC5/isr_1.c **** 
 254:Generated_Source\PSoC5/isr_1.c **** /*******************************************************************************
 255:Generated_Source\PSoC5/isr_1.c **** * Function Name: isr_1_GetPriority
 256:Generated_Source\PSoC5/isr_1.c **** ********************************************************************************
 257:Generated_Source\PSoC5/isr_1.c **** *
 258:Generated_Source\PSoC5/isr_1.c **** * Summary:
 259:Generated_Source\PSoC5/isr_1.c **** *   Gets the Priority of the Interrupt.
 260:Generated_Source\PSoC5/isr_1.c **** *
 261:Generated_Source\PSoC5/isr_1.c **** * Parameters:
 262:Generated_Source\PSoC5/isr_1.c **** *   None
 263:Generated_Source\PSoC5/isr_1.c **** *
 264:Generated_Source\PSoC5/isr_1.c **** * Return:
 265:Generated_Source\PSoC5/isr_1.c **** *   Priority of the interrupt, 0 being the highest priority
 266:Generated_Source\PSoC5/isr_1.c **** *    PSoC 3 and PSoC 5LP: Priority is from 0 to 7.
 267:Generated_Source\PSoC5/isr_1.c **** *    PSoC 4: Priority is from 0 to 3.
 268:Generated_Source\PSoC5/isr_1.c **** *
 269:Generated_Source\PSoC5/isr_1.c **** *******************************************************************************/
 270:Generated_Source\PSoC5/isr_1.c **** uint8 isr_1_GetPriority(void)
 271:Generated_Source\PSoC5/isr_1.c **** {
 111              		.loc 1 271 0
 112              		.cfi_startproc
 113              		@ args = 0, pretend = 0, frame = 0
 114              		@ frame_needed = 0, uses_anonymous_args = 0
 115              		@ link register save eliminated.
 272:Generated_Source\PSoC5/isr_1.c ****     uint8 priority;
 273:Generated_Source\PSoC5/isr_1.c **** 
 274:Generated_Source\PSoC5/isr_1.c **** 
 275:Generated_Source\PSoC5/isr_1.c ****     priority = *isr_1_INTC_PRIOR >> 5;
 116              		.loc 1 275 0
 117 0000 014B     		ldr	r3, .L11
 118 0002 1878     		ldrb	r0, [r3]	@ zero_extendqisi2
 119              	.LVL5:
 276:Generated_Source\PSoC5/isr_1.c **** 
 277:Generated_Source\PSoC5/isr_1.c ****     return priority;
 278:Generated_Source\PSoC5/isr_1.c **** }
 120              		.loc 1 278 0
 121 0004 4009     		lsrs	r0, r0, #5
ARM GAS  C:\Users\smiy200\AppData\Local\Temp\ccOil1nG.s 			page 8


 122              	.LVL6:
 123 0006 7047     		bx	lr
 124              	.L12:
 125              		.align	2
 126              	.L11:
 127 0008 04E400E0 		.word	-536812540
 128              		.cfi_endproc
 129              	.LFE6:
 130              		.size	isr_1_GetPriority, .-isr_1_GetPriority
 131              		.section	.text.isr_1_Enable,"ax",%progbits
 132              		.align	2
 133              		.global	isr_1_Enable
 134              		.thumb
 135              		.thumb_func
 136              		.type	isr_1_Enable, %function
 137              	isr_1_Enable:
 138              	.LFB7:
 279:Generated_Source\PSoC5/isr_1.c **** 
 280:Generated_Source\PSoC5/isr_1.c **** 
 281:Generated_Source\PSoC5/isr_1.c **** /*******************************************************************************
 282:Generated_Source\PSoC5/isr_1.c **** * Function Name: isr_1_Enable
 283:Generated_Source\PSoC5/isr_1.c **** ********************************************************************************
 284:Generated_Source\PSoC5/isr_1.c **** *
 285:Generated_Source\PSoC5/isr_1.c **** * Summary:
 286:Generated_Source\PSoC5/isr_1.c **** *   Enables the interrupt to the interrupt controller. Do not call this function
 287:Generated_Source\PSoC5/isr_1.c **** *   unless ISR_Start() has been called or the functionality of the ISR_Start() 
 288:Generated_Source\PSoC5/isr_1.c **** *   function, which sets the vector and the priority, has been called.
 289:Generated_Source\PSoC5/isr_1.c **** *
 290:Generated_Source\PSoC5/isr_1.c **** * Parameters:
 291:Generated_Source\PSoC5/isr_1.c **** *   None
 292:Generated_Source\PSoC5/isr_1.c **** *
 293:Generated_Source\PSoC5/isr_1.c **** * Return:
 294:Generated_Source\PSoC5/isr_1.c **** *   None
 295:Generated_Source\PSoC5/isr_1.c **** *
 296:Generated_Source\PSoC5/isr_1.c **** *******************************************************************************/
 297:Generated_Source\PSoC5/isr_1.c **** void isr_1_Enable(void)
 298:Generated_Source\PSoC5/isr_1.c **** {
 139              		.loc 1 298 0
 140              		.cfi_startproc
 141              		@ args = 0, pretend = 0, frame = 0
 142              		@ frame_needed = 0, uses_anonymous_args = 0
 143              		@ link register save eliminated.
 299:Generated_Source\PSoC5/isr_1.c ****     /* Enable the general interrupt. */
 300:Generated_Source\PSoC5/isr_1.c ****     *isr_1_INTC_SET_EN = isr_1__INTC_MASK;
 144              		.loc 1 300 0
 145 0000 1022     		movs	r2, #16
 146 0002 014B     		ldr	r3, .L14
 147 0004 1A60     		str	r2, [r3]
 148 0006 7047     		bx	lr
 149              	.L15:
 150              		.align	2
 151              	.L14:
 152 0008 00E100E0 		.word	-536813312
 153              		.cfi_endproc
 154              	.LFE7:
 155              		.size	isr_1_Enable, .-isr_1_Enable
 156              		.section	.text.isr_1_GetState,"ax",%progbits
ARM GAS  C:\Users\smiy200\AppData\Local\Temp\ccOil1nG.s 			page 9


 157              		.align	2
 158              		.global	isr_1_GetState
 159              		.thumb
 160              		.thumb_func
 161              		.type	isr_1_GetState, %function
 162              	isr_1_GetState:
 163              	.LFB8:
 301:Generated_Source\PSoC5/isr_1.c **** }
 302:Generated_Source\PSoC5/isr_1.c **** 
 303:Generated_Source\PSoC5/isr_1.c **** 
 304:Generated_Source\PSoC5/isr_1.c **** /*******************************************************************************
 305:Generated_Source\PSoC5/isr_1.c **** * Function Name: isr_1_GetState
 306:Generated_Source\PSoC5/isr_1.c **** ********************************************************************************
 307:Generated_Source\PSoC5/isr_1.c **** *
 308:Generated_Source\PSoC5/isr_1.c **** * Summary:
 309:Generated_Source\PSoC5/isr_1.c **** *   Gets the state (enabled, disabled) of the Interrupt.
 310:Generated_Source\PSoC5/isr_1.c **** *
 311:Generated_Source\PSoC5/isr_1.c **** * Parameters:
 312:Generated_Source\PSoC5/isr_1.c **** *   None
 313:Generated_Source\PSoC5/isr_1.c **** *
 314:Generated_Source\PSoC5/isr_1.c **** * Return:
 315:Generated_Source\PSoC5/isr_1.c **** *   1 if enabled, 0 if disabled.
 316:Generated_Source\PSoC5/isr_1.c **** *
 317:Generated_Source\PSoC5/isr_1.c **** *******************************************************************************/
 318:Generated_Source\PSoC5/isr_1.c **** uint8 isr_1_GetState(void)
 319:Generated_Source\PSoC5/isr_1.c **** {
 164              		.loc 1 319 0
 165              		.cfi_startproc
 166              		@ args = 0, pretend = 0, frame = 0
 167              		@ frame_needed = 0, uses_anonymous_args = 0
 168              		@ link register save eliminated.
 320:Generated_Source\PSoC5/isr_1.c ****     /* Get the state of the general interrupt. */
 321:Generated_Source\PSoC5/isr_1.c ****     return ((*isr_1_INTC_SET_EN & (uint32)isr_1__INTC_MASK) != 0u) ? 1u:0u;
 169              		.loc 1 321 0
 170 0000 044B     		ldr	r3, .L19
 171 0002 1B68     		ldr	r3, [r3]
 172 0004 13F0100F 		tst	r3, #16
 173 0008 01D0     		beq	.L18
 174 000a 0120     		movs	r0, #1
 175 000c 7047     		bx	lr
 176              	.L18:
 177 000e 0020     		movs	r0, #0
 322:Generated_Source\PSoC5/isr_1.c **** }
 178              		.loc 1 322 0
 179 0010 7047     		bx	lr
 180              	.L20:
 181 0012 00BF     		.align	2
 182              	.L19:
 183 0014 00E100E0 		.word	-536813312
 184              		.cfi_endproc
 185              	.LFE8:
 186              		.size	isr_1_GetState, .-isr_1_GetState
 187              		.section	.text.isr_1_Disable,"ax",%progbits
 188              		.align	2
 189              		.global	isr_1_Disable
 190              		.thumb
 191              		.thumb_func
ARM GAS  C:\Users\smiy200\AppData\Local\Temp\ccOil1nG.s 			page 10


 192              		.type	isr_1_Disable, %function
 193              	isr_1_Disable:
 194              	.LFB9:
 323:Generated_Source\PSoC5/isr_1.c **** 
 324:Generated_Source\PSoC5/isr_1.c **** 
 325:Generated_Source\PSoC5/isr_1.c **** /*******************************************************************************
 326:Generated_Source\PSoC5/isr_1.c **** * Function Name: isr_1_Disable
 327:Generated_Source\PSoC5/isr_1.c **** ********************************************************************************
 328:Generated_Source\PSoC5/isr_1.c **** *
 329:Generated_Source\PSoC5/isr_1.c **** * Summary:
 330:Generated_Source\PSoC5/isr_1.c **** *   Disables the Interrupt in the interrupt controller.
 331:Generated_Source\PSoC5/isr_1.c **** *
 332:Generated_Source\PSoC5/isr_1.c **** * Parameters:
 333:Generated_Source\PSoC5/isr_1.c **** *   None
 334:Generated_Source\PSoC5/isr_1.c **** *
 335:Generated_Source\PSoC5/isr_1.c **** * Return:
 336:Generated_Source\PSoC5/isr_1.c **** *   None
 337:Generated_Source\PSoC5/isr_1.c **** *
 338:Generated_Source\PSoC5/isr_1.c **** *******************************************************************************/
 339:Generated_Source\PSoC5/isr_1.c **** void isr_1_Disable(void)
 340:Generated_Source\PSoC5/isr_1.c **** {
 195              		.loc 1 340 0
 196              		.cfi_startproc
 197              		@ args = 0, pretend = 0, frame = 0
 198              		@ frame_needed = 0, uses_anonymous_args = 0
 199              		@ link register save eliminated.
 341:Generated_Source\PSoC5/isr_1.c ****     /* Disable the general interrupt. */
 342:Generated_Source\PSoC5/isr_1.c ****     *isr_1_INTC_CLR_EN = isr_1__INTC_MASK;
 200              		.loc 1 342 0
 201 0000 1022     		movs	r2, #16
 202 0002 014B     		ldr	r3, .L22
 203 0004 1A60     		str	r2, [r3]
 204 0006 7047     		bx	lr
 205              	.L23:
 206              		.align	2
 207              	.L22:
 208 0008 80E100E0 		.word	-536813184
 209              		.cfi_endproc
 210              	.LFE9:
 211              		.size	isr_1_Disable, .-isr_1_Disable
 212              		.section	.text.isr_1_Start,"ax",%progbits
 213              		.align	2
 214              		.global	isr_1_Start
 215              		.thumb
 216              		.thumb_func
 217              		.type	isr_1_Start, %function
 218              	isr_1_Start:
 219              	.LFB0:
  62:Generated_Source\PSoC5/isr_1.c ****     /* For all we know the interrupt is active. */
 220              		.loc 1 62 0
 221              		.cfi_startproc
 222              		@ args = 0, pretend = 0, frame = 0
 223              		@ frame_needed = 0, uses_anonymous_args = 0
 224 0000 08B5     		push	{r3, lr}
 225              		.cfi_def_cfa_offset 8
 226              		.cfi_offset 3, -8
 227              		.cfi_offset 14, -4
ARM GAS  C:\Users\smiy200\AppData\Local\Temp\ccOil1nG.s 			page 11


  64:Generated_Source\PSoC5/isr_1.c **** 
 228              		.loc 1 64 0
 229 0002 FFF7FEFF 		bl	isr_1_Disable
 230              	.LVL7:
  67:Generated_Source\PSoC5/isr_1.c **** 
 231              		.loc 1 67 0
 232 0006 0448     		ldr	r0, .L26
 233 0008 FFF7FEFF 		bl	isr_1_SetVector
 234              	.LVL8:
  70:Generated_Source\PSoC5/isr_1.c **** 
 235              		.loc 1 70 0
 236 000c 0720     		movs	r0, #7
 237 000e FFF7FEFF 		bl	isr_1_SetPriority
 238              	.LVL9:
  73:Generated_Source\PSoC5/isr_1.c **** }
 239              		.loc 1 73 0
 240 0012 FFF7FEFF 		bl	isr_1_Enable
 241              	.LVL10:
 242 0016 08BD     		pop	{r3, pc}
 243              	.L27:
 244              		.align	2
 245              	.L26:
 246 0018 00000000 		.word	isr_1_Interrupt
 247              		.cfi_endproc
 248              	.LFE0:
 249              		.size	isr_1_Start, .-isr_1_Start
 250              		.section	.text.isr_1_StartEx,"ax",%progbits
 251              		.align	2
 252              		.global	isr_1_StartEx
 253              		.thumb
 254              		.thumb_func
 255              		.type	isr_1_StartEx, %function
 256              	isr_1_StartEx:
 257              	.LFB1:
 105:Generated_Source\PSoC5/isr_1.c ****     /* For all we know the interrupt is active. */
 258              		.loc 1 105 0
 259              		.cfi_startproc
 260              		@ args = 0, pretend = 0, frame = 0
 261              		@ frame_needed = 0, uses_anonymous_args = 0
 262              	.LVL11:
 263 0000 10B5     		push	{r4, lr}
 264              		.cfi_def_cfa_offset 8
 265              		.cfi_offset 4, -8
 266              		.cfi_offset 14, -4
 267 0002 0446     		mov	r4, r0
 107:Generated_Source\PSoC5/isr_1.c **** 
 268              		.loc 1 107 0
 269 0004 FFF7FEFF 		bl	isr_1_Disable
 270              	.LVL12:
 110:Generated_Source\PSoC5/isr_1.c **** 
 271              		.loc 1 110 0
 272 0008 2046     		mov	r0, r4
 273 000a FFF7FEFF 		bl	isr_1_SetVector
 274              	.LVL13:
 113:Generated_Source\PSoC5/isr_1.c **** 
 275              		.loc 1 113 0
 276 000e 0720     		movs	r0, #7
ARM GAS  C:\Users\smiy200\AppData\Local\Temp\ccOil1nG.s 			page 12


 277 0010 FFF7FEFF 		bl	isr_1_SetPriority
 278              	.LVL14:
 116:Generated_Source\PSoC5/isr_1.c **** }
 279              		.loc 1 116 0
 280 0014 FFF7FEFF 		bl	isr_1_Enable
 281              	.LVL15:
 282 0018 10BD     		pop	{r4, pc}
 283              		.cfi_endproc
 284              	.LFE1:
 285              		.size	isr_1_StartEx, .-isr_1_StartEx
 286 001a 00BF     		.section	.text.isr_1_Stop,"ax",%progbits
 287              		.align	2
 288              		.global	isr_1_Stop
 289              		.thumb
 290              		.thumb_func
 291              		.type	isr_1_Stop, %function
 292              	isr_1_Stop:
 293              	.LFB2:
 135:Generated_Source\PSoC5/isr_1.c ****     /* Disable this interrupt. */
 294              		.loc 1 135 0
 295              		.cfi_startproc
 296              		@ args = 0, pretend = 0, frame = 0
 297              		@ frame_needed = 0, uses_anonymous_args = 0
 298 0000 08B5     		push	{r3, lr}
 299              		.cfi_def_cfa_offset 8
 300              		.cfi_offset 3, -8
 301              		.cfi_offset 14, -4
 137:Generated_Source\PSoC5/isr_1.c **** 
 302              		.loc 1 137 0
 303 0002 FFF7FEFF 		bl	isr_1_Disable
 304              	.LVL16:
 140:Generated_Source\PSoC5/isr_1.c **** }
 305              		.loc 1 140 0
 306 0006 0248     		ldr	r0, .L32
 307 0008 FFF7FEFF 		bl	isr_1_SetVector
 308              	.LVL17:
 309 000c 08BD     		pop	{r3, pc}
 310              	.L33:
 311 000e 00BF     		.align	2
 312              	.L32:
 313 0010 00000000 		.word	IntDefaultHandler
 314              		.cfi_endproc
 315              	.LFE2:
 316              		.size	isr_1_Stop, .-isr_1_Stop
 317              		.section	.text.isr_1_SetPending,"ax",%progbits
 318              		.align	2
 319              		.global	isr_1_SetPending
 320              		.thumb
 321              		.thumb_func
 322              		.type	isr_1_SetPending, %function
 323              	isr_1_SetPending:
 324              	.LFB10:
 343:Generated_Source\PSoC5/isr_1.c **** }
 344:Generated_Source\PSoC5/isr_1.c **** 
 345:Generated_Source\PSoC5/isr_1.c **** 
 346:Generated_Source\PSoC5/isr_1.c **** /*******************************************************************************
 347:Generated_Source\PSoC5/isr_1.c **** * Function Name: isr_1_SetPending
ARM GAS  C:\Users\smiy200\AppData\Local\Temp\ccOil1nG.s 			page 13


 348:Generated_Source\PSoC5/isr_1.c **** ********************************************************************************
 349:Generated_Source\PSoC5/isr_1.c **** *
 350:Generated_Source\PSoC5/isr_1.c **** * Summary:
 351:Generated_Source\PSoC5/isr_1.c **** *   Causes the Interrupt to enter the pending state, a software method of
 352:Generated_Source\PSoC5/isr_1.c **** *   generating the interrupt.
 353:Generated_Source\PSoC5/isr_1.c **** *
 354:Generated_Source\PSoC5/isr_1.c **** * Parameters:
 355:Generated_Source\PSoC5/isr_1.c **** *   None
 356:Generated_Source\PSoC5/isr_1.c **** *
 357:Generated_Source\PSoC5/isr_1.c **** * Return:
 358:Generated_Source\PSoC5/isr_1.c **** *   None
 359:Generated_Source\PSoC5/isr_1.c **** *
 360:Generated_Source\PSoC5/isr_1.c **** * Side Effects:
 361:Generated_Source\PSoC5/isr_1.c **** *   If interrupts are enabled and the interrupt is set up properly, the ISR is
 362:Generated_Source\PSoC5/isr_1.c **** *   entered (depending on the priority of this interrupt and other pending 
 363:Generated_Source\PSoC5/isr_1.c **** *   interrupts).
 364:Generated_Source\PSoC5/isr_1.c **** *
 365:Generated_Source\PSoC5/isr_1.c **** *******************************************************************************/
 366:Generated_Source\PSoC5/isr_1.c **** void isr_1_SetPending(void)
 367:Generated_Source\PSoC5/isr_1.c **** {
 325              		.loc 1 367 0
 326              		.cfi_startproc
 327              		@ args = 0, pretend = 0, frame = 0
 328              		@ frame_needed = 0, uses_anonymous_args = 0
 329              		@ link register save eliminated.
 368:Generated_Source\PSoC5/isr_1.c ****     *isr_1_INTC_SET_PD = isr_1__INTC_MASK;
 330              		.loc 1 368 0
 331 0000 1022     		movs	r2, #16
 332 0002 014B     		ldr	r3, .L35
 333 0004 1A60     		str	r2, [r3]
 334 0006 7047     		bx	lr
 335              	.L36:
 336              		.align	2
 337              	.L35:
 338 0008 00E200E0 		.word	-536813056
 339              		.cfi_endproc
 340              	.LFE10:
 341              		.size	isr_1_SetPending, .-isr_1_SetPending
 342              		.section	.text.isr_1_ClearPending,"ax",%progbits
 343              		.align	2
 344              		.global	isr_1_ClearPending
 345              		.thumb
 346              		.thumb_func
 347              		.type	isr_1_ClearPending, %function
 348              	isr_1_ClearPending:
 349              	.LFB11:
 369:Generated_Source\PSoC5/isr_1.c **** }
 370:Generated_Source\PSoC5/isr_1.c **** 
 371:Generated_Source\PSoC5/isr_1.c **** 
 372:Generated_Source\PSoC5/isr_1.c **** /*******************************************************************************
 373:Generated_Source\PSoC5/isr_1.c **** * Function Name: isr_1_ClearPending
 374:Generated_Source\PSoC5/isr_1.c **** ********************************************************************************
 375:Generated_Source\PSoC5/isr_1.c **** *
 376:Generated_Source\PSoC5/isr_1.c **** * Summary:
 377:Generated_Source\PSoC5/isr_1.c **** *   Clears a pending interrupt in the interrupt controller.
 378:Generated_Source\PSoC5/isr_1.c **** *
 379:Generated_Source\PSoC5/isr_1.c **** *   Note Some interrupt sources are clear-on-read and require the block 
ARM GAS  C:\Users\smiy200\AppData\Local\Temp\ccOil1nG.s 			page 14


 380:Generated_Source\PSoC5/isr_1.c **** *   interrupt/status register to be read/cleared with the appropriate block API 
 381:Generated_Source\PSoC5/isr_1.c **** *   (GPIO, UART, and so on). Otherwise the ISR will continue to remain in 
 382:Generated_Source\PSoC5/isr_1.c **** *   pending state even though the interrupt itself is cleared using this API.
 383:Generated_Source\PSoC5/isr_1.c **** *
 384:Generated_Source\PSoC5/isr_1.c **** * Parameters:
 385:Generated_Source\PSoC5/isr_1.c **** *   None
 386:Generated_Source\PSoC5/isr_1.c **** *
 387:Generated_Source\PSoC5/isr_1.c **** * Return:
 388:Generated_Source\PSoC5/isr_1.c **** *   None
 389:Generated_Source\PSoC5/isr_1.c **** *
 390:Generated_Source\PSoC5/isr_1.c **** *******************************************************************************/
 391:Generated_Source\PSoC5/isr_1.c **** void isr_1_ClearPending(void)
 392:Generated_Source\PSoC5/isr_1.c **** {
 350              		.loc 1 392 0
 351              		.cfi_startproc
 352              		@ args = 0, pretend = 0, frame = 0
 353              		@ frame_needed = 0, uses_anonymous_args = 0
 354              		@ link register save eliminated.
 393:Generated_Source\PSoC5/isr_1.c ****     *isr_1_INTC_CLR_PD = isr_1__INTC_MASK;
 355              		.loc 1 393 0
 356 0000 1022     		movs	r2, #16
 357 0002 014B     		ldr	r3, .L38
 358 0004 1A60     		str	r2, [r3]
 359 0006 7047     		bx	lr
 360              	.L39:
 361              		.align	2
 362              	.L38:
 363 0008 80E200E0 		.word	-536812928
 364              		.cfi_endproc
 365              	.LFE11:
 366              		.size	isr_1_ClearPending, .-isr_1_ClearPending
 367              		.text
 368              	.Letext0:
 369              		.file 2 "Generated_Source\\PSoC5/cytypes.h"