ARM GAS  C:\Users\smiy200\AppData\Local\Temp\cc6BaIhh.s 			page 1


   1              		.syntax unified
   2              		.cpu cortex-m3
   3              		.fpu softvfp
   4              		.eabi_attribute 20, 1
   5              		.eabi_attribute 21, 1
   6              		.eabi_attribute 23, 3
   7              		.eabi_attribute 24, 1
   8              		.eabi_attribute 25, 1
   9              		.eabi_attribute 26, 1
  10              		.eabi_attribute 30, 1
  11              		.eabi_attribute 34, 1
  12              		.eabi_attribute 18, 4
  13              		.thumb
  14              		.syntax unified
  15              		.file	"isrRF_RX.c"
  16              		.text
  17              	.Ltext0:
  18              		.cfi_sections	.debug_frame
  19              		.section	.text.isrRF_RX_SetVector,"ax",%progbits
  20              		.align	2
  21              		.global	isrRF_RX_SetVector
  22              		.thumb
  23              		.thumb_func
  24              		.type	isrRF_RX_SetVector, %function
  25              	isrRF_RX_SetVector:
  26              	.LFB3:
  27              		.file 1 "Generated_Source\\PSoC5\\isrRF_RX.c"
   1:Generated_Source\PSoC5/isrRF_RX.c **** /*******************************************************************************
   2:Generated_Source\PSoC5/isrRF_RX.c **** * File Name: isrRF_RX.c  
   3:Generated_Source\PSoC5/isrRF_RX.c **** * Version 1.70
   4:Generated_Source\PSoC5/isrRF_RX.c **** *
   5:Generated_Source\PSoC5/isrRF_RX.c **** *  Description:
   6:Generated_Source\PSoC5/isrRF_RX.c **** *   API for controlling the state of an interrupt.
   7:Generated_Source\PSoC5/isrRF_RX.c **** *
   8:Generated_Source\PSoC5/isrRF_RX.c **** *
   9:Generated_Source\PSoC5/isrRF_RX.c **** *  Note:
  10:Generated_Source\PSoC5/isrRF_RX.c **** *
  11:Generated_Source\PSoC5/isrRF_RX.c **** ********************************************************************************
  12:Generated_Source\PSoC5/isrRF_RX.c **** * Copyright 2008-2015, Cypress Semiconductor Corporation.  All rights reserved.
  13:Generated_Source\PSoC5/isrRF_RX.c **** * You may use this file only in accordance with the license, terms, conditions, 
  14:Generated_Source\PSoC5/isrRF_RX.c **** * disclaimers, and limitations in the end user license agreement accompanying 
  15:Generated_Source\PSoC5/isrRF_RX.c **** * the software package with which this file was provided.
  16:Generated_Source\PSoC5/isrRF_RX.c **** *******************************************************************************/
  17:Generated_Source\PSoC5/isrRF_RX.c **** 
  18:Generated_Source\PSoC5/isrRF_RX.c **** 
  19:Generated_Source\PSoC5/isrRF_RX.c **** #include <cydevice_trm.h>
  20:Generated_Source\PSoC5/isrRF_RX.c **** #include <CyLib.h>
  21:Generated_Source\PSoC5/isrRF_RX.c **** #include <isrRF_RX.h>
  22:Generated_Source\PSoC5/isrRF_RX.c **** #include "cyapicallbacks.h"
  23:Generated_Source\PSoC5/isrRF_RX.c **** #include "UART.h"
  24:Generated_Source\PSoC5/isrRF_RX.c **** #include "LED.h"
  25:Generated_Source\PSoC5/isrRF_RX.c **** 
  26:Generated_Source\PSoC5/isrRF_RX.c **** uint8 outputC;
  27:Generated_Source\PSoC5/isrRF_RX.c **** #if !defined(isrRF_RX__REMOVED) /* Check for removal by optimization */
  28:Generated_Source\PSoC5/isrRF_RX.c **** 
  29:Generated_Source\PSoC5/isrRF_RX.c **** /*******************************************************************************
  30:Generated_Source\PSoC5/isrRF_RX.c **** *  Place your includes, defines and code here 
ARM GAS  C:\Users\smiy200\AppData\Local\Temp\cc6BaIhh.s 			page 2


  31:Generated_Source\PSoC5/isrRF_RX.c **** ********************************************************************************/
  32:Generated_Source\PSoC5/isrRF_RX.c **** /* `#START isrRF_RX_intc` */
  33:Generated_Source\PSoC5/isrRF_RX.c **** 
  34:Generated_Source\PSoC5/isrRF_RX.c **** /* `#END` */
  35:Generated_Source\PSoC5/isrRF_RX.c **** 
  36:Generated_Source\PSoC5/isrRF_RX.c **** #ifndef CYINT_IRQ_BASE
  37:Generated_Source\PSoC5/isrRF_RX.c **** #define CYINT_IRQ_BASE      16
  38:Generated_Source\PSoC5/isrRF_RX.c **** #endif /* CYINT_IRQ_BASE */
  39:Generated_Source\PSoC5/isrRF_RX.c **** #ifndef CYINT_VECT_TABLE
  40:Generated_Source\PSoC5/isrRF_RX.c **** #define CYINT_VECT_TABLE    ((cyisraddress **) CYREG_NVIC_VECT_OFFSET)
  41:Generated_Source\PSoC5/isrRF_RX.c **** #endif /* CYINT_VECT_TABLE */
  42:Generated_Source\PSoC5/isrRF_RX.c **** 
  43:Generated_Source\PSoC5/isrRF_RX.c **** /* Declared in startup, used to set unused interrupts to. */
  44:Generated_Source\PSoC5/isrRF_RX.c **** CY_ISR_PROTO(IntDefaultHandler);
  45:Generated_Source\PSoC5/isrRF_RX.c **** 
  46:Generated_Source\PSoC5/isrRF_RX.c **** 
  47:Generated_Source\PSoC5/isrRF_RX.c **** /*******************************************************************************
  48:Generated_Source\PSoC5/isrRF_RX.c **** * Function Name: isrRF_RX_Start
  49:Generated_Source\PSoC5/isrRF_RX.c **** ********************************************************************************
  50:Generated_Source\PSoC5/isrRF_RX.c **** *
  51:Generated_Source\PSoC5/isrRF_RX.c **** * Summary:
  52:Generated_Source\PSoC5/isrRF_RX.c **** *  Set up the interrupt and enable it. This function disables the interrupt, 
  53:Generated_Source\PSoC5/isrRF_RX.c **** *  sets the default interrupt vector, sets the priority from the value in the
  54:Generated_Source\PSoC5/isrRF_RX.c **** *  Design Wide Resources Interrupt Editor, then enables the interrupt to the 
  55:Generated_Source\PSoC5/isrRF_RX.c **** *  interrupt controller.
  56:Generated_Source\PSoC5/isrRF_RX.c **** *
  57:Generated_Source\PSoC5/isrRF_RX.c **** * Parameters:  
  58:Generated_Source\PSoC5/isrRF_RX.c **** *   None
  59:Generated_Source\PSoC5/isrRF_RX.c **** *
  60:Generated_Source\PSoC5/isrRF_RX.c **** * Return:
  61:Generated_Source\PSoC5/isrRF_RX.c **** *   None
  62:Generated_Source\PSoC5/isrRF_RX.c **** *
  63:Generated_Source\PSoC5/isrRF_RX.c **** *******************************************************************************/
  64:Generated_Source\PSoC5/isrRF_RX.c **** void isrRF_RX_Start(void)
  65:Generated_Source\PSoC5/isrRF_RX.c **** {
  66:Generated_Source\PSoC5/isrRF_RX.c ****     /* For all we know the interrupt is active. */
  67:Generated_Source\PSoC5/isrRF_RX.c ****     isrRF_RX_Disable();
  68:Generated_Source\PSoC5/isrRF_RX.c **** 
  69:Generated_Source\PSoC5/isrRF_RX.c ****     /* Set the ISR to point to the isrRF_RX Interrupt. */
  70:Generated_Source\PSoC5/isrRF_RX.c ****     isrRF_RX_SetVector(&isrRF_RX_Interrupt);
  71:Generated_Source\PSoC5/isrRF_RX.c **** 
  72:Generated_Source\PSoC5/isrRF_RX.c ****     /* Set the priority. */
  73:Generated_Source\PSoC5/isrRF_RX.c ****     isrRF_RX_SetPriority((uint8)isrRF_RX_INTC_PRIOR_NUMBER);
  74:Generated_Source\PSoC5/isrRF_RX.c **** 
  75:Generated_Source\PSoC5/isrRF_RX.c ****     /* Enable it. */
  76:Generated_Source\PSoC5/isrRF_RX.c ****     isrRF_RX_Enable();
  77:Generated_Source\PSoC5/isrRF_RX.c **** }
  78:Generated_Source\PSoC5/isrRF_RX.c **** 
  79:Generated_Source\PSoC5/isrRF_RX.c **** 
  80:Generated_Source\PSoC5/isrRF_RX.c **** /*******************************************************************************
  81:Generated_Source\PSoC5/isrRF_RX.c **** * Function Name: isrRF_RX_StartEx
  82:Generated_Source\PSoC5/isrRF_RX.c **** ********************************************************************************
  83:Generated_Source\PSoC5/isrRF_RX.c **** *
  84:Generated_Source\PSoC5/isrRF_RX.c **** * Summary:
  85:Generated_Source\PSoC5/isrRF_RX.c **** *  Sets up the interrupt and enables it. This function disables the interrupt,
  86:Generated_Source\PSoC5/isrRF_RX.c **** *  sets the interrupt vector based on the address passed in, sets the priority 
  87:Generated_Source\PSoC5/isrRF_RX.c **** *  from the value in the Design Wide Resources Interrupt Editor, then enables 
ARM GAS  C:\Users\smiy200\AppData\Local\Temp\cc6BaIhh.s 			page 3


  88:Generated_Source\PSoC5/isrRF_RX.c **** *  the interrupt to the interrupt controller.
  89:Generated_Source\PSoC5/isrRF_RX.c **** *  
  90:Generated_Source\PSoC5/isrRF_RX.c **** *  When defining ISR functions, the CY_ISR and CY_ISR_PROTO macros should be 
  91:Generated_Source\PSoC5/isrRF_RX.c **** *  used to provide consistent definition across compilers:
  92:Generated_Source\PSoC5/isrRF_RX.c **** *  
  93:Generated_Source\PSoC5/isrRF_RX.c **** *  Function definition example:
  94:Generated_Source\PSoC5/isrRF_RX.c **** *   CY_ISR(MyISR)
  95:Generated_Source\PSoC5/isrRF_RX.c **** *   {
  96:Generated_Source\PSoC5/isrRF_RX.c **** *   }
  97:Generated_Source\PSoC5/isrRF_RX.c **** *   Function prototype example:
  98:Generated_Source\PSoC5/isrRF_RX.c **** *   CY_ISR_PROTO(MyISR);
  99:Generated_Source\PSoC5/isrRF_RX.c **** *
 100:Generated_Source\PSoC5/isrRF_RX.c **** * Parameters:  
 101:Generated_Source\PSoC5/isrRF_RX.c **** *   address: Address of the ISR to set in the interrupt vector table.
 102:Generated_Source\PSoC5/isrRF_RX.c **** *
 103:Generated_Source\PSoC5/isrRF_RX.c **** * Return:
 104:Generated_Source\PSoC5/isrRF_RX.c **** *   None
 105:Generated_Source\PSoC5/isrRF_RX.c **** *
 106:Generated_Source\PSoC5/isrRF_RX.c **** *******************************************************************************/
 107:Generated_Source\PSoC5/isrRF_RX.c **** void isrRF_RX_StartEx(cyisraddress address)
 108:Generated_Source\PSoC5/isrRF_RX.c **** {
 109:Generated_Source\PSoC5/isrRF_RX.c ****     /* For all we know the interrupt is active. */
 110:Generated_Source\PSoC5/isrRF_RX.c ****     isrRF_RX_Disable();
 111:Generated_Source\PSoC5/isrRF_RX.c **** 
 112:Generated_Source\PSoC5/isrRF_RX.c ****     /* Set the ISR to point to the isrRF_RX Interrupt. */
 113:Generated_Source\PSoC5/isrRF_RX.c ****     isrRF_RX_SetVector(address);
 114:Generated_Source\PSoC5/isrRF_RX.c **** 
 115:Generated_Source\PSoC5/isrRF_RX.c ****     /* Set the priority. */
 116:Generated_Source\PSoC5/isrRF_RX.c ****     isrRF_RX_SetPriority((uint8)isrRF_RX_INTC_PRIOR_NUMBER);
 117:Generated_Source\PSoC5/isrRF_RX.c **** 
 118:Generated_Source\PSoC5/isrRF_RX.c ****     /* Enable it. */
 119:Generated_Source\PSoC5/isrRF_RX.c ****     isrRF_RX_Enable();
 120:Generated_Source\PSoC5/isrRF_RX.c **** }
 121:Generated_Source\PSoC5/isrRF_RX.c **** 
 122:Generated_Source\PSoC5/isrRF_RX.c **** 
 123:Generated_Source\PSoC5/isrRF_RX.c **** /*******************************************************************************
 124:Generated_Source\PSoC5/isrRF_RX.c **** * Function Name: isrRF_RX_Stop
 125:Generated_Source\PSoC5/isrRF_RX.c **** ********************************************************************************
 126:Generated_Source\PSoC5/isrRF_RX.c **** *
 127:Generated_Source\PSoC5/isrRF_RX.c **** * Summary:
 128:Generated_Source\PSoC5/isrRF_RX.c **** *   Disables and removes the interrupt.
 129:Generated_Source\PSoC5/isrRF_RX.c **** *
 130:Generated_Source\PSoC5/isrRF_RX.c **** * Parameters:  
 131:Generated_Source\PSoC5/isrRF_RX.c **** *   None
 132:Generated_Source\PSoC5/isrRF_RX.c **** *
 133:Generated_Source\PSoC5/isrRF_RX.c **** * Return:
 134:Generated_Source\PSoC5/isrRF_RX.c **** *   None
 135:Generated_Source\PSoC5/isrRF_RX.c **** *
 136:Generated_Source\PSoC5/isrRF_RX.c **** *******************************************************************************/
 137:Generated_Source\PSoC5/isrRF_RX.c **** void isrRF_RX_Stop(void)
 138:Generated_Source\PSoC5/isrRF_RX.c **** {
 139:Generated_Source\PSoC5/isrRF_RX.c ****     /* Disable this interrupt. */
 140:Generated_Source\PSoC5/isrRF_RX.c ****     isrRF_RX_Disable();
 141:Generated_Source\PSoC5/isrRF_RX.c **** 
 142:Generated_Source\PSoC5/isrRF_RX.c ****     /* Set the ISR to point to the passive one. */
 143:Generated_Source\PSoC5/isrRF_RX.c ****     isrRF_RX_SetVector(&IntDefaultHandler);
 144:Generated_Source\PSoC5/isrRF_RX.c **** }
ARM GAS  C:\Users\smiy200\AppData\Local\Temp\cc6BaIhh.s 			page 4


 145:Generated_Source\PSoC5/isrRF_RX.c **** 
 146:Generated_Source\PSoC5/isrRF_RX.c **** 
 147:Generated_Source\PSoC5/isrRF_RX.c **** /*******************************************************************************
 148:Generated_Source\PSoC5/isrRF_RX.c **** * Function Name: isrRF_RX_Interrupt
 149:Generated_Source\PSoC5/isrRF_RX.c **** ********************************************************************************
 150:Generated_Source\PSoC5/isrRF_RX.c **** *
 151:Generated_Source\PSoC5/isrRF_RX.c **** * Summary:
 152:Generated_Source\PSoC5/isrRF_RX.c **** *   The default Interrupt Service Routine for isrRF_RX.
 153:Generated_Source\PSoC5/isrRF_RX.c **** *
 154:Generated_Source\PSoC5/isrRF_RX.c **** *   Add custom code between the coments to keep the next version of this file
 155:Generated_Source\PSoC5/isrRF_RX.c **** *   from over writting your code.
 156:Generated_Source\PSoC5/isrRF_RX.c **** *
 157:Generated_Source\PSoC5/isrRF_RX.c **** * Parameters:  
 158:Generated_Source\PSoC5/isrRF_RX.c **** *
 159:Generated_Source\PSoC5/isrRF_RX.c **** * Return:
 160:Generated_Source\PSoC5/isrRF_RX.c **** *   None
 161:Generated_Source\PSoC5/isrRF_RX.c **** *
 162:Generated_Source\PSoC5/isrRF_RX.c **** *******************************************************************************/
 163:Generated_Source\PSoC5/isrRF_RX.c **** //CY_ISR(isrRF_RX_Interrupt)
 164:Generated_Source\PSoC5/isrRF_RX.c **** //{
 165:Generated_Source\PSoC5/isrRF_RX.c **** //    #ifdef isrRF_RX_INTERRUPT_INTERRUPT_CALLBACK
 166:Generated_Source\PSoC5/isrRF_RX.c **** //        isrRF_RX_Interrupt_InterruptCallback();
 167:Generated_Source\PSoC5/isrRF_RX.c **** //    #endif /* isrRF_RX_INTERRUPT_INTERRUPT_CALLBACK */ 
 168:Generated_Source\PSoC5/isrRF_RX.c **** //
 169:Generated_Source\PSoC5/isrRF_RX.c **** //    /*  Place your Interrupt code here. */
 170:Generated_Source\PSoC5/isrRF_RX.c **** //    
 171:Generated_Source\PSoC5/isrRF_RX.c **** //    LED_Write(~LED_Read());
 172:Generated_Source\PSoC5/isrRF_RX.c **** //    outputC = UART_ReadRxData();
 173:Generated_Source\PSoC5/isrRF_RX.c **** //    /* `#START isrRF_RX_Interrupt` */
 174:Generated_Source\PSoC5/isrRF_RX.c **** //
 175:Generated_Source\PSoC5/isrRF_RX.c **** //    /* `#END` */
 176:Generated_Source\PSoC5/isrRF_RX.c **** //}
 177:Generated_Source\PSoC5/isrRF_RX.c **** 
 178:Generated_Source\PSoC5/isrRF_RX.c **** 
 179:Generated_Source\PSoC5/isrRF_RX.c **** /*******************************************************************************
 180:Generated_Source\PSoC5/isrRF_RX.c **** * Function Name: isrRF_RX_SetVector
 181:Generated_Source\PSoC5/isrRF_RX.c **** ********************************************************************************
 182:Generated_Source\PSoC5/isrRF_RX.c **** *
 183:Generated_Source\PSoC5/isrRF_RX.c **** * Summary:
 184:Generated_Source\PSoC5/isrRF_RX.c **** *   Change the ISR vector for the Interrupt. Note calling isrRF_RX_Start
 185:Generated_Source\PSoC5/isrRF_RX.c **** *   will override any effect this method would have had. To set the vector 
 186:Generated_Source\PSoC5/isrRF_RX.c **** *   before the component has been started use isrRF_RX_StartEx instead.
 187:Generated_Source\PSoC5/isrRF_RX.c **** * 
 188:Generated_Source\PSoC5/isrRF_RX.c **** *   When defining ISR functions, the CY_ISR and CY_ISR_PROTO macros should be 
 189:Generated_Source\PSoC5/isrRF_RX.c **** *   used to provide consistent definition across compilers:
 190:Generated_Source\PSoC5/isrRF_RX.c **** *
 191:Generated_Source\PSoC5/isrRF_RX.c **** *   Function definition example:
 192:Generated_Source\PSoC5/isrRF_RX.c **** *   CY_ISR(MyISR)
 193:Generated_Source\PSoC5/isrRF_RX.c **** *   {
 194:Generated_Source\PSoC5/isrRF_RX.c **** *   }
 195:Generated_Source\PSoC5/isrRF_RX.c **** *
 196:Generated_Source\PSoC5/isrRF_RX.c **** *   Function prototype example:
 197:Generated_Source\PSoC5/isrRF_RX.c **** *     CY_ISR_PROTO(MyISR);
 198:Generated_Source\PSoC5/isrRF_RX.c **** *
 199:Generated_Source\PSoC5/isrRF_RX.c **** * Parameters:
 200:Generated_Source\PSoC5/isrRF_RX.c **** *   address: Address of the ISR to set in the interrupt vector table.
 201:Generated_Source\PSoC5/isrRF_RX.c **** *
ARM GAS  C:\Users\smiy200\AppData\Local\Temp\cc6BaIhh.s 			page 5


 202:Generated_Source\PSoC5/isrRF_RX.c **** * Return:
 203:Generated_Source\PSoC5/isrRF_RX.c **** *   None
 204:Generated_Source\PSoC5/isrRF_RX.c **** *
 205:Generated_Source\PSoC5/isrRF_RX.c **** *******************************************************************************/
 206:Generated_Source\PSoC5/isrRF_RX.c **** void isrRF_RX_SetVector(cyisraddress address)
 207:Generated_Source\PSoC5/isrRF_RX.c **** {
  28              		.loc 1 207 0
  29              		.cfi_startproc
  30              		@ args = 0, pretend = 0, frame = 0
  31              		@ frame_needed = 0, uses_anonymous_args = 0
  32              		@ link register save eliminated.
  33              	.LVL0:
 208:Generated_Source\PSoC5/isrRF_RX.c ****     cyisraddress * ramVectorTable;
 209:Generated_Source\PSoC5/isrRF_RX.c **** 
 210:Generated_Source\PSoC5/isrRF_RX.c ****     ramVectorTable = (cyisraddress *) *CYINT_VECT_TABLE;
  34              		.loc 1 210 0
  35 0000 014B     		ldr	r3, .L2
  36 0002 1B68     		ldr	r3, [r3]
  37              	.LVL1:
 211:Generated_Source\PSoC5/isrRF_RX.c **** 
 212:Generated_Source\PSoC5/isrRF_RX.c ****     ramVectorTable[CYINT_IRQ_BASE + (uint32)isrRF_RX__INTC_NUMBER] = address;
  38              		.loc 1 212 0
  39 0004 D864     		str	r0, [r3, #76]
  40 0006 7047     		bx	lr
  41              	.L3:
  42              		.align	2
  43              	.L2:
  44 0008 08ED00E0 		.word	-536810232
  45              		.cfi_endproc
  46              	.LFE3:
  47              		.size	isrRF_RX_SetVector, .-isrRF_RX_SetVector
  48              		.section	.text.isrRF_RX_GetVector,"ax",%progbits
  49              		.align	2
  50              		.global	isrRF_RX_GetVector
  51              		.thumb
  52              		.thumb_func
  53              		.type	isrRF_RX_GetVector, %function
  54              	isrRF_RX_GetVector:
  55              	.LFB4:
 213:Generated_Source\PSoC5/isrRF_RX.c **** }
 214:Generated_Source\PSoC5/isrRF_RX.c **** 
 215:Generated_Source\PSoC5/isrRF_RX.c **** 
 216:Generated_Source\PSoC5/isrRF_RX.c **** /*******************************************************************************
 217:Generated_Source\PSoC5/isrRF_RX.c **** * Function Name: isrRF_RX_GetVector
 218:Generated_Source\PSoC5/isrRF_RX.c **** ********************************************************************************
 219:Generated_Source\PSoC5/isrRF_RX.c **** *
 220:Generated_Source\PSoC5/isrRF_RX.c **** * Summary:
 221:Generated_Source\PSoC5/isrRF_RX.c **** *   Gets the "address" of the current ISR vector for the Interrupt.
 222:Generated_Source\PSoC5/isrRF_RX.c **** *
 223:Generated_Source\PSoC5/isrRF_RX.c **** * Parameters:
 224:Generated_Source\PSoC5/isrRF_RX.c **** *   None
 225:Generated_Source\PSoC5/isrRF_RX.c **** *
 226:Generated_Source\PSoC5/isrRF_RX.c **** * Return:
 227:Generated_Source\PSoC5/isrRF_RX.c **** *   Address of the ISR in the interrupt vector table.
 228:Generated_Source\PSoC5/isrRF_RX.c **** *
 229:Generated_Source\PSoC5/isrRF_RX.c **** *******************************************************************************/
 230:Generated_Source\PSoC5/isrRF_RX.c **** cyisraddress isrRF_RX_GetVector(void)
ARM GAS  C:\Users\smiy200\AppData\Local\Temp\cc6BaIhh.s 			page 6


 231:Generated_Source\PSoC5/isrRF_RX.c **** {
  56              		.loc 1 231 0
  57              		.cfi_startproc
  58              		@ args = 0, pretend = 0, frame = 0
  59              		@ frame_needed = 0, uses_anonymous_args = 0
  60              		@ link register save eliminated.
 232:Generated_Source\PSoC5/isrRF_RX.c ****     cyisraddress * ramVectorTable;
 233:Generated_Source\PSoC5/isrRF_RX.c **** 
 234:Generated_Source\PSoC5/isrRF_RX.c ****     ramVectorTable = (cyisraddress *) *CYINT_VECT_TABLE;
  61              		.loc 1 234 0
  62 0000 014B     		ldr	r3, .L5
  63 0002 1B68     		ldr	r3, [r3]
  64              	.LVL2:
 235:Generated_Source\PSoC5/isrRF_RX.c **** 
 236:Generated_Source\PSoC5/isrRF_RX.c ****     return ramVectorTable[CYINT_IRQ_BASE + (uint32)isrRF_RX__INTC_NUMBER];
 237:Generated_Source\PSoC5/isrRF_RX.c **** }
  65              		.loc 1 237 0
  66 0004 D86C     		ldr	r0, [r3, #76]
  67 0006 7047     		bx	lr
  68              	.L6:
  69              		.align	2
  70              	.L5:
  71 0008 08ED00E0 		.word	-536810232
  72              		.cfi_endproc
  73              	.LFE4:
  74              		.size	isrRF_RX_GetVector, .-isrRF_RX_GetVector
  75              		.section	.text.isrRF_RX_SetPriority,"ax",%progbits
  76              		.align	2
  77              		.global	isrRF_RX_SetPriority
  78              		.thumb
  79              		.thumb_func
  80              		.type	isrRF_RX_SetPriority, %function
  81              	isrRF_RX_SetPriority:
  82              	.LFB5:
 238:Generated_Source\PSoC5/isrRF_RX.c **** 
 239:Generated_Source\PSoC5/isrRF_RX.c **** 
 240:Generated_Source\PSoC5/isrRF_RX.c **** /*******************************************************************************
 241:Generated_Source\PSoC5/isrRF_RX.c **** * Function Name: isrRF_RX_SetPriority
 242:Generated_Source\PSoC5/isrRF_RX.c **** ********************************************************************************
 243:Generated_Source\PSoC5/isrRF_RX.c **** *
 244:Generated_Source\PSoC5/isrRF_RX.c **** * Summary:
 245:Generated_Source\PSoC5/isrRF_RX.c **** *   Sets the Priority of the Interrupt. 
 246:Generated_Source\PSoC5/isrRF_RX.c **** *
 247:Generated_Source\PSoC5/isrRF_RX.c **** *   Note calling isrRF_RX_Start or isrRF_RX_StartEx will 
 248:Generated_Source\PSoC5/isrRF_RX.c **** *   override any effect this API would have had. This API should only be called
 249:Generated_Source\PSoC5/isrRF_RX.c **** *   after isrRF_RX_Start or isrRF_RX_StartEx has been called. 
 250:Generated_Source\PSoC5/isrRF_RX.c **** *   To set the initial priority for the component, use the Design-Wide Resources
 251:Generated_Source\PSoC5/isrRF_RX.c **** *   Interrupt Editor.
 252:Generated_Source\PSoC5/isrRF_RX.c **** *
 253:Generated_Source\PSoC5/isrRF_RX.c **** *   Note This API has no effect on Non-maskable interrupt NMI).
 254:Generated_Source\PSoC5/isrRF_RX.c **** *
 255:Generated_Source\PSoC5/isrRF_RX.c **** * Parameters:
 256:Generated_Source\PSoC5/isrRF_RX.c **** *   priority: Priority of the interrupt, 0 being the highest priority
 257:Generated_Source\PSoC5/isrRF_RX.c **** *             PSoC 3 and PSoC 5LP: Priority is from 0 to 7.
 258:Generated_Source\PSoC5/isrRF_RX.c **** *             PSoC 4: Priority is from 0 to 3.
 259:Generated_Source\PSoC5/isrRF_RX.c **** *
 260:Generated_Source\PSoC5/isrRF_RX.c **** * Return:
ARM GAS  C:\Users\smiy200\AppData\Local\Temp\cc6BaIhh.s 			page 7


 261:Generated_Source\PSoC5/isrRF_RX.c **** *   None
 262:Generated_Source\PSoC5/isrRF_RX.c **** *
 263:Generated_Source\PSoC5/isrRF_RX.c **** *******************************************************************************/
 264:Generated_Source\PSoC5/isrRF_RX.c **** void isrRF_RX_SetPriority(uint8 priority)
 265:Generated_Source\PSoC5/isrRF_RX.c **** {
  83              		.loc 1 265 0
  84              		.cfi_startproc
  85              		@ args = 0, pretend = 0, frame = 0
  86              		@ frame_needed = 0, uses_anonymous_args = 0
  87              		@ link register save eliminated.
  88              	.LVL3:
 266:Generated_Source\PSoC5/isrRF_RX.c ****     *isrRF_RX_INTC_PRIOR = priority << 5;
  89              		.loc 1 266 0
  90 0000 4001     		lsls	r0, r0, #5
  91              	.LVL4:
  92 0002 C0B2     		uxtb	r0, r0
  93 0004 014B     		ldr	r3, .L8
  94 0006 1870     		strb	r0, [r3]
  95 0008 7047     		bx	lr
  96              	.L9:
  97 000a 00BF     		.align	2
  98              	.L8:
  99 000c 03E400E0 		.word	-536812541
 100              		.cfi_endproc
 101              	.LFE5:
 102              		.size	isrRF_RX_SetPriority, .-isrRF_RX_SetPriority
 103              		.section	.text.isrRF_RX_GetPriority,"ax",%progbits
 104              		.align	2
 105              		.global	isrRF_RX_GetPriority
 106              		.thumb
 107              		.thumb_func
 108              		.type	isrRF_RX_GetPriority, %function
 109              	isrRF_RX_GetPriority:
 110              	.LFB6:
 267:Generated_Source\PSoC5/isrRF_RX.c **** }
 268:Generated_Source\PSoC5/isrRF_RX.c **** 
 269:Generated_Source\PSoC5/isrRF_RX.c **** 
 270:Generated_Source\PSoC5/isrRF_RX.c **** /*******************************************************************************
 271:Generated_Source\PSoC5/isrRF_RX.c **** * Function Name: isrRF_RX_GetPriority
 272:Generated_Source\PSoC5/isrRF_RX.c **** ********************************************************************************
 273:Generated_Source\PSoC5/isrRF_RX.c **** *
 274:Generated_Source\PSoC5/isrRF_RX.c **** * Summary:
 275:Generated_Source\PSoC5/isrRF_RX.c **** *   Gets the Priority of the Interrupt.
 276:Generated_Source\PSoC5/isrRF_RX.c **** *
 277:Generated_Source\PSoC5/isrRF_RX.c **** * Parameters:
 278:Generated_Source\PSoC5/isrRF_RX.c **** *   None
 279:Generated_Source\PSoC5/isrRF_RX.c **** *
 280:Generated_Source\PSoC5/isrRF_RX.c **** * Return:
 281:Generated_Source\PSoC5/isrRF_RX.c **** *   Priority of the interrupt, 0 being the highest priority
 282:Generated_Source\PSoC5/isrRF_RX.c **** *    PSoC 3 and PSoC 5LP: Priority is from 0 to 7.
 283:Generated_Source\PSoC5/isrRF_RX.c **** *    PSoC 4: Priority is from 0 to 3.
 284:Generated_Source\PSoC5/isrRF_RX.c **** *
 285:Generated_Source\PSoC5/isrRF_RX.c **** *******************************************************************************/
 286:Generated_Source\PSoC5/isrRF_RX.c **** uint8 isrRF_RX_GetPriority(void)
 287:Generated_Source\PSoC5/isrRF_RX.c **** {
 111              		.loc 1 287 0
 112              		.cfi_startproc
ARM GAS  C:\Users\smiy200\AppData\Local\Temp\cc6BaIhh.s 			page 8


 113              		@ args = 0, pretend = 0, frame = 0
 114              		@ frame_needed = 0, uses_anonymous_args = 0
 115              		@ link register save eliminated.
 288:Generated_Source\PSoC5/isrRF_RX.c ****     uint8 priority;
 289:Generated_Source\PSoC5/isrRF_RX.c **** 
 290:Generated_Source\PSoC5/isrRF_RX.c **** 
 291:Generated_Source\PSoC5/isrRF_RX.c ****     priority = *isrRF_RX_INTC_PRIOR >> 5;
 116              		.loc 1 291 0
 117 0000 014B     		ldr	r3, .L11
 118 0002 1878     		ldrb	r0, [r3]	@ zero_extendqisi2
 119              	.LVL5:
 292:Generated_Source\PSoC5/isrRF_RX.c **** 
 293:Generated_Source\PSoC5/isrRF_RX.c ****     return priority;
 294:Generated_Source\PSoC5/isrRF_RX.c **** }
 120              		.loc 1 294 0
 121 0004 4009     		lsrs	r0, r0, #5
 122              	.LVL6:
 123 0006 7047     		bx	lr
 124              	.L12:
 125              		.align	2
 126              	.L11:
 127 0008 03E400E0 		.word	-536812541
 128              		.cfi_endproc
 129              	.LFE6:
 130              		.size	isrRF_RX_GetPriority, .-isrRF_RX_GetPriority
 131              		.section	.text.isrRF_RX_Enable,"ax",%progbits
 132              		.align	2
 133              		.global	isrRF_RX_Enable
 134              		.thumb
 135              		.thumb_func
 136              		.type	isrRF_RX_Enable, %function
 137              	isrRF_RX_Enable:
 138              	.LFB7:
 295:Generated_Source\PSoC5/isrRF_RX.c **** 
 296:Generated_Source\PSoC5/isrRF_RX.c **** 
 297:Generated_Source\PSoC5/isrRF_RX.c **** /*******************************************************************************
 298:Generated_Source\PSoC5/isrRF_RX.c **** * Function Name: isrRF_RX_Enable
 299:Generated_Source\PSoC5/isrRF_RX.c **** ********************************************************************************
 300:Generated_Source\PSoC5/isrRF_RX.c **** *
 301:Generated_Source\PSoC5/isrRF_RX.c **** * Summary:
 302:Generated_Source\PSoC5/isrRF_RX.c **** *   Enables the interrupt to the interrupt controller. Do not call this function
 303:Generated_Source\PSoC5/isrRF_RX.c **** *   unless ISR_Start() has been called or the functionality of the ISR_Start() 
 304:Generated_Source\PSoC5/isrRF_RX.c **** *   function, which sets the vector and the priority, has been called.
 305:Generated_Source\PSoC5/isrRF_RX.c **** *
 306:Generated_Source\PSoC5/isrRF_RX.c **** * Parameters:
 307:Generated_Source\PSoC5/isrRF_RX.c **** *   None
 308:Generated_Source\PSoC5/isrRF_RX.c **** *
 309:Generated_Source\PSoC5/isrRF_RX.c **** * Return:
 310:Generated_Source\PSoC5/isrRF_RX.c **** *   None
 311:Generated_Source\PSoC5/isrRF_RX.c **** *
 312:Generated_Source\PSoC5/isrRF_RX.c **** *******************************************************************************/
 313:Generated_Source\PSoC5/isrRF_RX.c **** void isrRF_RX_Enable(void)
 314:Generated_Source\PSoC5/isrRF_RX.c **** {
 139              		.loc 1 314 0
 140              		.cfi_startproc
 141              		@ args = 0, pretend = 0, frame = 0
 142              		@ frame_needed = 0, uses_anonymous_args = 0
ARM GAS  C:\Users\smiy200\AppData\Local\Temp\cc6BaIhh.s 			page 9


 143              		@ link register save eliminated.
 315:Generated_Source\PSoC5/isrRF_RX.c ****     /* Enable the general interrupt. */
 316:Generated_Source\PSoC5/isrRF_RX.c ****     *isrRF_RX_INTC_SET_EN = isrRF_RX__INTC_MASK;
 144              		.loc 1 316 0
 145 0000 0822     		movs	r2, #8
 146 0002 014B     		ldr	r3, .L14
 147 0004 1A60     		str	r2, [r3]
 148 0006 7047     		bx	lr
 149              	.L15:
 150              		.align	2
 151              	.L14:
 152 0008 00E100E0 		.word	-536813312
 153              		.cfi_endproc
 154              	.LFE7:
 155              		.size	isrRF_RX_Enable, .-isrRF_RX_Enable
 156              		.section	.text.isrRF_RX_GetState,"ax",%progbits
 157              		.align	2
 158              		.global	isrRF_RX_GetState
 159              		.thumb
 160              		.thumb_func
 161              		.type	isrRF_RX_GetState, %function
 162              	isrRF_RX_GetState:
 163              	.LFB8:
 317:Generated_Source\PSoC5/isrRF_RX.c **** }
 318:Generated_Source\PSoC5/isrRF_RX.c **** 
 319:Generated_Source\PSoC5/isrRF_RX.c **** 
 320:Generated_Source\PSoC5/isrRF_RX.c **** /*******************************************************************************
 321:Generated_Source\PSoC5/isrRF_RX.c **** * Function Name: isrRF_RX_GetState
 322:Generated_Source\PSoC5/isrRF_RX.c **** ********************************************************************************
 323:Generated_Source\PSoC5/isrRF_RX.c **** *
 324:Generated_Source\PSoC5/isrRF_RX.c **** * Summary:
 325:Generated_Source\PSoC5/isrRF_RX.c **** *   Gets the state (enabled, disabled) of the Interrupt.
 326:Generated_Source\PSoC5/isrRF_RX.c **** *
 327:Generated_Source\PSoC5/isrRF_RX.c **** * Parameters:
 328:Generated_Source\PSoC5/isrRF_RX.c **** *   None
 329:Generated_Source\PSoC5/isrRF_RX.c **** *
 330:Generated_Source\PSoC5/isrRF_RX.c **** * Return:
 331:Generated_Source\PSoC5/isrRF_RX.c **** *   1 if enabled, 0 if disabled.
 332:Generated_Source\PSoC5/isrRF_RX.c **** *
 333:Generated_Source\PSoC5/isrRF_RX.c **** *******************************************************************************/
 334:Generated_Source\PSoC5/isrRF_RX.c **** uint8 isrRF_RX_GetState(void)
 335:Generated_Source\PSoC5/isrRF_RX.c **** {
 164              		.loc 1 335 0
 165              		.cfi_startproc
 166              		@ args = 0, pretend = 0, frame = 0
 167              		@ frame_needed = 0, uses_anonymous_args = 0
 168              		@ link register save eliminated.
 336:Generated_Source\PSoC5/isrRF_RX.c ****     /* Get the state of the general interrupt. */
 337:Generated_Source\PSoC5/isrRF_RX.c ****     return ((*isrRF_RX_INTC_SET_EN & (uint32)isrRF_RX__INTC_MASK) != 0u) ? 1u:0u;
 169              		.loc 1 337 0
 170 0000 044B     		ldr	r3, .L19
 171 0002 1B68     		ldr	r3, [r3]
 172 0004 13F0080F 		tst	r3, #8
 173 0008 01D0     		beq	.L18
 174 000a 0120     		movs	r0, #1
 175 000c 7047     		bx	lr
 176              	.L18:
ARM GAS  C:\Users\smiy200\AppData\Local\Temp\cc6BaIhh.s 			page 10


 177 000e 0020     		movs	r0, #0
 338:Generated_Source\PSoC5/isrRF_RX.c **** }
 178              		.loc 1 338 0
 179 0010 7047     		bx	lr
 180              	.L20:
 181 0012 00BF     		.align	2
 182              	.L19:
 183 0014 00E100E0 		.word	-536813312
 184              		.cfi_endproc
 185              	.LFE8:
 186              		.size	isrRF_RX_GetState, .-isrRF_RX_GetState
 187              		.section	.text.isrRF_RX_Disable,"ax",%progbits
 188              		.align	2
 189              		.global	isrRF_RX_Disable
 190              		.thumb
 191              		.thumb_func
 192              		.type	isrRF_RX_Disable, %function
 193              	isrRF_RX_Disable:
 194              	.LFB9:
 339:Generated_Source\PSoC5/isrRF_RX.c **** 
 340:Generated_Source\PSoC5/isrRF_RX.c **** 
 341:Generated_Source\PSoC5/isrRF_RX.c **** /*******************************************************************************
 342:Generated_Source\PSoC5/isrRF_RX.c **** * Function Name: isrRF_RX_Disable
 343:Generated_Source\PSoC5/isrRF_RX.c **** ********************************************************************************
 344:Generated_Source\PSoC5/isrRF_RX.c **** *
 345:Generated_Source\PSoC5/isrRF_RX.c **** * Summary:
 346:Generated_Source\PSoC5/isrRF_RX.c **** *   Disables the Interrupt in the interrupt controller.
 347:Generated_Source\PSoC5/isrRF_RX.c **** *
 348:Generated_Source\PSoC5/isrRF_RX.c **** * Parameters:
 349:Generated_Source\PSoC5/isrRF_RX.c **** *   None
 350:Generated_Source\PSoC5/isrRF_RX.c **** *
 351:Generated_Source\PSoC5/isrRF_RX.c **** * Return:
 352:Generated_Source\PSoC5/isrRF_RX.c **** *   None
 353:Generated_Source\PSoC5/isrRF_RX.c **** *
 354:Generated_Source\PSoC5/isrRF_RX.c **** *******************************************************************************/
 355:Generated_Source\PSoC5/isrRF_RX.c **** void isrRF_RX_Disable(void)
 356:Generated_Source\PSoC5/isrRF_RX.c **** {
 195              		.loc 1 356 0
 196              		.cfi_startproc
 197              		@ args = 0, pretend = 0, frame = 0
 198              		@ frame_needed = 0, uses_anonymous_args = 0
 199              		@ link register save eliminated.
 357:Generated_Source\PSoC5/isrRF_RX.c ****     /* Disable the general interrupt. */
 358:Generated_Source\PSoC5/isrRF_RX.c ****     *isrRF_RX_INTC_CLR_EN = isrRF_RX__INTC_MASK;
 200              		.loc 1 358 0
 201 0000 0822     		movs	r2, #8
 202 0002 014B     		ldr	r3, .L22
 203 0004 1A60     		str	r2, [r3]
 204 0006 7047     		bx	lr
 205              	.L23:
 206              		.align	2
 207              	.L22:
 208 0008 80E100E0 		.word	-536813184
 209              		.cfi_endproc
 210              	.LFE9:
 211              		.size	isrRF_RX_Disable, .-isrRF_RX_Disable
 212              		.section	.text.isrRF_RX_Start,"ax",%progbits
ARM GAS  C:\Users\smiy200\AppData\Local\Temp\cc6BaIhh.s 			page 11


 213              		.align	2
 214              		.global	isrRF_RX_Start
 215              		.thumb
 216              		.thumb_func
 217              		.type	isrRF_RX_Start, %function
 218              	isrRF_RX_Start:
 219              	.LFB0:
  65:Generated_Source\PSoC5/isrRF_RX.c ****     /* For all we know the interrupt is active. */
 220              		.loc 1 65 0
 221              		.cfi_startproc
 222              		@ args = 0, pretend = 0, frame = 0
 223              		@ frame_needed = 0, uses_anonymous_args = 0
 224 0000 08B5     		push	{r3, lr}
 225              		.cfi_def_cfa_offset 8
 226              		.cfi_offset 3, -8
 227              		.cfi_offset 14, -4
  67:Generated_Source\PSoC5/isrRF_RX.c **** 
 228              		.loc 1 67 0
 229 0002 FFF7FEFF 		bl	isrRF_RX_Disable
 230              	.LVL7:
  70:Generated_Source\PSoC5/isrRF_RX.c **** 
 231              		.loc 1 70 0
 232 0006 0448     		ldr	r0, .L26
 233 0008 FFF7FEFF 		bl	isrRF_RX_SetVector
 234              	.LVL8:
  73:Generated_Source\PSoC5/isrRF_RX.c **** 
 235              		.loc 1 73 0
 236 000c 0720     		movs	r0, #7
 237 000e FFF7FEFF 		bl	isrRF_RX_SetPriority
 238              	.LVL9:
  76:Generated_Source\PSoC5/isrRF_RX.c **** }
 239              		.loc 1 76 0
 240 0012 FFF7FEFF 		bl	isrRF_RX_Enable
 241              	.LVL10:
 242 0016 08BD     		pop	{r3, pc}
 243              	.L27:
 244              		.align	2
 245              	.L26:
 246 0018 00000000 		.word	isrRF_RX_Interrupt
 247              		.cfi_endproc
 248              	.LFE0:
 249              		.size	isrRF_RX_Start, .-isrRF_RX_Start
 250              		.section	.text.isrRF_RX_StartEx,"ax",%progbits
 251              		.align	2
 252              		.global	isrRF_RX_StartEx
 253              		.thumb
 254              		.thumb_func
 255              		.type	isrRF_RX_StartEx, %function
 256              	isrRF_RX_StartEx:
 257              	.LFB1:
 108:Generated_Source\PSoC5/isrRF_RX.c ****     /* For all we know the interrupt is active. */
 258              		.loc 1 108 0
 259              		.cfi_startproc
 260              		@ args = 0, pretend = 0, frame = 0
 261              		@ frame_needed = 0, uses_anonymous_args = 0
 262              	.LVL11:
 263 0000 10B5     		push	{r4, lr}
ARM GAS  C:\Users\smiy200\AppData\Local\Temp\cc6BaIhh.s 			page 12


 264              		.cfi_def_cfa_offset 8
 265              		.cfi_offset 4, -8
 266              		.cfi_offset 14, -4
 267 0002 0446     		mov	r4, r0
 110:Generated_Source\PSoC5/isrRF_RX.c **** 
 268              		.loc 1 110 0
 269 0004 FFF7FEFF 		bl	isrRF_RX_Disable
 270              	.LVL12:
 113:Generated_Source\PSoC5/isrRF_RX.c **** 
 271              		.loc 1 113 0
 272 0008 2046     		mov	r0, r4
 273 000a FFF7FEFF 		bl	isrRF_RX_SetVector
 274              	.LVL13:
 116:Generated_Source\PSoC5/isrRF_RX.c **** 
 275              		.loc 1 116 0
 276 000e 0720     		movs	r0, #7
 277 0010 FFF7FEFF 		bl	isrRF_RX_SetPriority
 278              	.LVL14:
 119:Generated_Source\PSoC5/isrRF_RX.c **** }
 279              		.loc 1 119 0
 280 0014 FFF7FEFF 		bl	isrRF_RX_Enable
 281              	.LVL15:
 282 0018 10BD     		pop	{r4, pc}
 283              		.cfi_endproc
 284              	.LFE1:
 285              		.size	isrRF_RX_StartEx, .-isrRF_RX_StartEx
 286 001a 00BF     		.section	.text.isrRF_RX_Stop,"ax",%progbits
 287              		.align	2
 288              		.global	isrRF_RX_Stop
 289              		.thumb
 290              		.thumb_func
 291              		.type	isrRF_RX_Stop, %function
 292              	isrRF_RX_Stop:
 293              	.LFB2:
 138:Generated_Source\PSoC5/isrRF_RX.c ****     /* Disable this interrupt. */
 294              		.loc 1 138 0
 295              		.cfi_startproc
 296              		@ args = 0, pretend = 0, frame = 0
 297              		@ frame_needed = 0, uses_anonymous_args = 0
 298 0000 08B5     		push	{r3, lr}
 299              		.cfi_def_cfa_offset 8
 300              		.cfi_offset 3, -8
 301              		.cfi_offset 14, -4
 140:Generated_Source\PSoC5/isrRF_RX.c **** 
 302              		.loc 1 140 0
 303 0002 FFF7FEFF 		bl	isrRF_RX_Disable
 304              	.LVL16:
 143:Generated_Source\PSoC5/isrRF_RX.c **** }
 305              		.loc 1 143 0
 306 0006 0248     		ldr	r0, .L32
 307 0008 FFF7FEFF 		bl	isrRF_RX_SetVector
 308              	.LVL17:
 309 000c 08BD     		pop	{r3, pc}
 310              	.L33:
 311 000e 00BF     		.align	2
 312              	.L32:
 313 0010 00000000 		.word	IntDefaultHandler
ARM GAS  C:\Users\smiy200\AppData\Local\Temp\cc6BaIhh.s 			page 13


 314              		.cfi_endproc
 315              	.LFE2:
 316              		.size	isrRF_RX_Stop, .-isrRF_RX_Stop
 317              		.section	.text.isrRF_RX_SetPending,"ax",%progbits
 318              		.align	2
 319              		.global	isrRF_RX_SetPending
 320              		.thumb
 321              		.thumb_func
 322              		.type	isrRF_RX_SetPending, %function
 323              	isrRF_RX_SetPending:
 324              	.LFB10:
 359:Generated_Source\PSoC5/isrRF_RX.c **** }
 360:Generated_Source\PSoC5/isrRF_RX.c **** 
 361:Generated_Source\PSoC5/isrRF_RX.c **** 
 362:Generated_Source\PSoC5/isrRF_RX.c **** /*******************************************************************************
 363:Generated_Source\PSoC5/isrRF_RX.c **** * Function Name: isrRF_RX_SetPending
 364:Generated_Source\PSoC5/isrRF_RX.c **** ********************************************************************************
 365:Generated_Source\PSoC5/isrRF_RX.c **** *
 366:Generated_Source\PSoC5/isrRF_RX.c **** * Summary:
 367:Generated_Source\PSoC5/isrRF_RX.c **** *   Causes the Interrupt to enter the pending state, a software method of
 368:Generated_Source\PSoC5/isrRF_RX.c **** *   generating the interrupt.
 369:Generated_Source\PSoC5/isrRF_RX.c **** *
 370:Generated_Source\PSoC5/isrRF_RX.c **** * Parameters:
 371:Generated_Source\PSoC5/isrRF_RX.c **** *   None
 372:Generated_Source\PSoC5/isrRF_RX.c **** *
 373:Generated_Source\PSoC5/isrRF_RX.c **** * Return:
 374:Generated_Source\PSoC5/isrRF_RX.c **** *   None
 375:Generated_Source\PSoC5/isrRF_RX.c **** *
 376:Generated_Source\PSoC5/isrRF_RX.c **** * Side Effects:
 377:Generated_Source\PSoC5/isrRF_RX.c **** *   If interrupts are enabled and the interrupt is set up properly, the ISR is
 378:Generated_Source\PSoC5/isrRF_RX.c **** *   entered (depending on the priority of this interrupt and other pending 
 379:Generated_Source\PSoC5/isrRF_RX.c **** *   interrupts).
 380:Generated_Source\PSoC5/isrRF_RX.c **** *
 381:Generated_Source\PSoC5/isrRF_RX.c **** *******************************************************************************/
 382:Generated_Source\PSoC5/isrRF_RX.c **** void isrRF_RX_SetPending(void)
 383:Generated_Source\PSoC5/isrRF_RX.c **** {
 325              		.loc 1 383 0
 326              		.cfi_startproc
 327              		@ args = 0, pretend = 0, frame = 0
 328              		@ frame_needed = 0, uses_anonymous_args = 0
 329              		@ link register save eliminated.
 384:Generated_Source\PSoC5/isrRF_RX.c ****     *isrRF_RX_INTC_SET_PD = isrRF_RX__INTC_MASK;
 330              		.loc 1 384 0
 331 0000 0822     		movs	r2, #8
 332 0002 014B     		ldr	r3, .L35
 333 0004 1A60     		str	r2, [r3]
 334 0006 7047     		bx	lr
 335              	.L36:
 336              		.align	2
 337              	.L35:
 338 0008 00E200E0 		.word	-536813056
 339              		.cfi_endproc
 340              	.LFE10:
 341              		.size	isrRF_RX_SetPending, .-isrRF_RX_SetPending
 342              		.section	.text.isrRF_RX_ClearPending,"ax",%progbits
 343              		.align	2
 344              		.global	isrRF_RX_ClearPending
ARM GAS  C:\Users\smiy200\AppData\Local\Temp\cc6BaIhh.s 			page 14


 345              		.thumb
 346              		.thumb_func
 347              		.type	isrRF_RX_ClearPending, %function
 348              	isrRF_RX_ClearPending:
 349              	.LFB11:
 385:Generated_Source\PSoC5/isrRF_RX.c **** }
 386:Generated_Source\PSoC5/isrRF_RX.c **** 
 387:Generated_Source\PSoC5/isrRF_RX.c **** 
 388:Generated_Source\PSoC5/isrRF_RX.c **** /*******************************************************************************
 389:Generated_Source\PSoC5/isrRF_RX.c **** * Function Name: isrRF_RX_ClearPending
 390:Generated_Source\PSoC5/isrRF_RX.c **** ********************************************************************************
 391:Generated_Source\PSoC5/isrRF_RX.c **** *
 392:Generated_Source\PSoC5/isrRF_RX.c **** * Summary:
 393:Generated_Source\PSoC5/isrRF_RX.c **** *   Clears a pending interrupt in the interrupt controller.
 394:Generated_Source\PSoC5/isrRF_RX.c **** *
 395:Generated_Source\PSoC5/isrRF_RX.c **** *   Note Some interrupt sources are clear-on-read and require the block 
 396:Generated_Source\PSoC5/isrRF_RX.c **** *   interrupt/status register to be read/cleared with the appropriate block API 
 397:Generated_Source\PSoC5/isrRF_RX.c **** *   (GPIO, UART, and so on). Otherwise the ISR will continue to remain in 
 398:Generated_Source\PSoC5/isrRF_RX.c **** *   pending state even though the interrupt itself is cleared using this API.
 399:Generated_Source\PSoC5/isrRF_RX.c **** *
 400:Generated_Source\PSoC5/isrRF_RX.c **** * Parameters:
 401:Generated_Source\PSoC5/isrRF_RX.c **** *   None
 402:Generated_Source\PSoC5/isrRF_RX.c **** *
 403:Generated_Source\PSoC5/isrRF_RX.c **** * Return:
 404:Generated_Source\PSoC5/isrRF_RX.c **** *   None
 405:Generated_Source\PSoC5/isrRF_RX.c **** *
 406:Generated_Source\PSoC5/isrRF_RX.c **** *******************************************************************************/
 407:Generated_Source\PSoC5/isrRF_RX.c **** void isrRF_RX_ClearPending(void)
 408:Generated_Source\PSoC5/isrRF_RX.c **** {
 350              		.loc 1 408 0
 351              		.cfi_startproc
 352              		@ args = 0, pretend = 0, frame = 0
 353              		@ frame_needed = 0, uses_anonymous_args = 0
 354              		@ link register save eliminated.
 409:Generated_Source\PSoC5/isrRF_RX.c ****     *isrRF_RX_INTC_CLR_PD = isrRF_RX__INTC_MASK;
 355              		.loc 1 409 0
 356 0000 0822     		movs	r2, #8
 357 0002 014B     		ldr	r3, .L38
 358 0004 1A60     		str	r2, [r3]
 359 0006 7047     		bx	lr
 360              	.L39:
 361              		.align	2
 362              	.L38:
 363 0008 80E200E0 		.word	-536812928
 364              		.cfi_endproc
 365              	.LFE11:
 366              		.size	isrRF_RX_ClearPending, .-isrRF_RX_ClearPending
 367              		.comm	outputC,1,1
 368              		.text
 369              	.Letext0:
 370              		.file 2 "Generated_Source\\PSoC5/cytypes.h"