ARM GAS  C:\Users\smiy200\AppData\Local\Temp\ccKh3Sfa.s 			page 1


   1              		.syntax unified
   2              		.cpu cortex-m3
   3              		.fpu softvfp
   4              		.eabi_attribute 20, 1
   5              		.eabi_attribute 21, 1
   6              		.eabi_attribute 23, 3
   7              		.eabi_attribute 24, 1
   8              		.eabi_attribute 25, 1
   9              		.eabi_attribute 26, 1
  10              		.eabi_attribute 30, 1
  11              		.eabi_attribute 34, 1
  12              		.eabi_attribute 18, 4
  13              		.thumb
  14              		.syntax unified
  15              		.file	"main.c"
  16              		.text
  17              	.Ltext0:
  18              		.cfi_sections	.debug_frame
  19              		.section	.text.isr_1_Interrupt_custom,"ax",%progbits
  20              		.align	2
  21              		.global	isr_1_Interrupt_custom
  22              		.thumb
  23              		.thumb_func
  24              		.type	isr_1_Interrupt_custom, %function
  25              	isr_1_Interrupt_custom:
  26              	.LFB65:
  27              		.file 1 "main.c"
   1:main.c        **** 
   2:main.c        **** /* ========================================
   3:main.c        ****  * Laboratory Exercise 4
   4:main.c        ****  *
   5:main.c        ****  * Program a UART to receive the string from a RF receiver.
   6:main.c        ****  * The RF receiver : 57.6k b/s, 8b, no parity, no flow control, one start and one stop bit
   7:main.c        ****  *
   8:main.c        ****  * Copyright Univ of Auckland, 2016
   9:main.c        ****  * All Rights Reserved
  10:main.c        ****  * UNPUBLISHED, LICENSED SOFTWARE.
  11:main.c        ****  *
  12:main.c        ****  * CONFIDENTIAL AND PROPRIETARY INFORMATION
  13:main.c        ****  * WHICH IS THE PROPERTY OF Univ of Auckland.
  14:main.c        ****  *
  15:main.c        ****  * ========================================
  16:main.c        **** */
  17:main.c        **** #include <project.h>
  18:main.c        **** #include <stdio.h>
  19:main.c        **** #include <ADC_SAR_1.h>
  20:main.c        **** #include "VDAC8_1.h"
  21:main.c        **** 
  22:main.c        **** //* ========================================
  23:main.c        **** #define TOGGLE_LED LED_Write(~LED_Read())
  24:main.c        **** #define PACKETSIZE 32
  25:main.c        **** #define RXSTRINGSIZE 255
  26:main.c        **** 
  27:main.c        **** #define FALSE 0
  28:main.c        **** #define TRUE 1
  29:main.c        **** 
  30:main.c        **** #define BUF_SIZE 64 // USBUART fixed buffer size
ARM GAS  C:\Users\smiy200\AppData\Local\Temp\ccKh3Sfa.s 			page 2


  31:main.c        **** #define CHAR_NULL '0'
  32:main.c        **** #define CHAR_BACKSP 0x08
  33:main.c        **** #define CHAR_DEL 0x7F
  34:main.c        **** #define CHAR_ENTER 0x0D
  35:main.c        **** #define LOW_DIGIT '0'
  36:main.c        **** #define HIGH_DIGIT '9'
  37:main.c        **** 
  38:main.c        **** #define SOP 0xaa
  39:main.c        **** //* ========================================
  40:main.c        **** uint8 flag_rx = 0;
  41:main.c        **** uint8 flag_packet = 0;
  42:main.c        **** uint8 outputC;
  43:main.c        **** uint8 flag_KB_string = 0;
  44:main.c        **** //* ========================================
  45:main.c        **** char rf_string[RXSTRINGSIZE];
  46:main.c        **** char displaystring[BUF_SIZE] = "UART Lab Exercise 4\n";
  47:main.c        **** char line[BUF_SIZE], entry[BUF_SIZE];
  48:main.c        **** uint8 usbBuffer[BUF_SIZE];
  49:main.c        **** //* ========================================
  50:main.c        **** typedef struct data_main {
  51:main.c        **** 	int8            rssi;	
  52:main.c        ****     uint8           index;			// index number of packet. incremented number
  53:main.c        **** 	uint16			robot_xpos;	 	// 
  54:main.c        **** 	uint16			robot_ypos;		//
  55:main.c        ****     uint16         robot_orientation;
  56:main.c        **** 	uint16			g0_xpos;		//
  57:main.c        **** 	uint16			g0_ypos;		//
  58:main.c        **** 	uint16			g0_speed;		//
  59:main.c        **** 	uint16		g0_direction;	//
  60:main.c        **** 	uint16			g1_xpos;		//
  61:main.c        **** 	uint16			g1_ypos;		//
  62:main.c        **** 	uint16			g1_speed;		//
  63:main.c        ****     uint16		g1_direction;	//
  64:main.c        ****     uint16			g2_xpos;		//
  65:main.c        ****     uint16			g2_ypos;		//
  66:main.c        ****     uint16			g2_speed;		//
  67:main.c        ****     uint16		g2_direction;	//
  68:main.c        **** } vtype1;
  69:main.c        **** 
  70:main.c        **** struct data_main system_state;
  71:main.c        **** //* ========================================
  72:main.c        **** 
  73:main.c        **** 
  74:main.c        **** 
  75:main.c        **** //* ========================================
  76:main.c        **** void usbPutString(char *s);
  77:main.c        **** void usbPutChar(char c);
  78:main.c        **** void handle_rx_binary();
  79:main.c        **** void handle_rx_ascii();
  80:main.c        **** void handle_usb();
  81:main.c        **** //* ========================================
  82:main.c        **** CY_ISR_PROTO(isr_1_Interrupt_custom);
  83:main.c        **** int main()
  84:main.c        **** {
  85:main.c        ****     
  86:main.c        ****     CyGlobalIntEnable; /* Enable global interrupts. */
  87:main.c        ****     Timer_1_Start();
ARM GAS  C:\Users\smiy200\AppData\Local\Temp\ccKh3Sfa.s 			page 3


  88:main.c        ****     /* Place your initialization/startup code here (e.g. MyInst_Start()) */
  89:main.c        ****     ADC_SAR_1_Start();
  90:main.c        ****     isr_1_StartEx(isr_1_Interrupt_custom);
  91:main.c        ****     ADC_SAR_1_StartConvert();
  92:main.c        ****     //ADC_SAR_1_IRQ_StartEx(isr_1_Interrupt_custom);
  93:main.c        ****     //ADC_SAR_1_IRQ_Enable();
  94:main.c        ****     VDAC8_1_Start();
  95:main.c        ****     for(;;)
  96:main.c        ****     {
  97:main.c        ****         
  98:main.c        ****         
  99:main.c        ****         /* Place your application code here. */
 100:main.c        ****         
 101:main.c        ****   
 102:main.c        **** }
 103:main.c        ****     }
 104:main.c        **** uint16_t count = 0;
 105:main.c        **** uint8_t test = 0;
 106:main.c        **** CY_ISR(isr_1_Interrupt_custom)
 107:main.c        **** {
  28              		.loc 1 107 0
  29              		.cfi_startproc
  30              		@ args = 0, pretend = 0, frame = 0
  31              		@ frame_needed = 0, uses_anonymous_args = 0
  32 0000 08B5     		push	{r3, lr}
  33              		.cfi_def_cfa_offset 8
  34              		.cfi_offset 3, -8
  35              		.cfi_offset 14, -4
 108:main.c        ****     #ifdef isr_1_INTERRUPT_INTERRUPT_CALLBACK
 109:main.c        ****         isr_1_Interrupt_InterruptCallback();
 110:main.c        ****     #endif /* isr_1_INTERRUPT_INTERRUPT_CALLBACK */ 
 111:main.c        **** 
 112:main.c        ****     /*  Place your Interrupt code here. */
 113:main.c        ****     /* `#START isr_1_Interrupt` */
 114:main.c        ****             
 115:main.c        ****         LED_Write(~LED_Read());
  36              		.loc 1 115 0
  37 0002 FFF7FEFF 		bl	LED_Read
  38              	.LVL0:
  39 0006 C043     		mvns	r0, r0
  40 0008 C0B2     		uxtb	r0, r0
  41 000a FFF7FEFF 		bl	LED_Write
  42              	.LVL1:
 116:main.c        ****         uint8 result = ADC_SAR_1_GetResult8();
  43              		.loc 1 116 0
  44 000e FFF7FEFF 		bl	ADC_SAR_1_GetResult8
  45              	.LVL2:
 117:main.c        ****         VDAC8_1_SetValue(result);
  46              		.loc 1 117 0
  47 0012 C0B2     		uxtb	r0, r0
  48 0014 FFF7FEFF 		bl	VDAC8_1_SetValue
  49              	.LVL3:
 118:main.c        ****         
 119:main.c        ****         
 120:main.c        ****         isr_1_ClearPending();
  50              		.loc 1 120 0
  51 0018 FFF7FEFF 		bl	isr_1_ClearPending
ARM GAS  C:\Users\smiy200\AppData\Local\Temp\ccKh3Sfa.s 			page 4


  52              	.LVL4:
  53 001c 08BD     		pop	{r3, pc}
  54              		.cfi_endproc
  55              	.LFE65:
  56              		.size	isr_1_Interrupt_custom, .-isr_1_Interrupt_custom
  57 001e 00BF     		.section	.text.main,"ax",%progbits
  58              		.align	2
  59              		.global	main
  60              		.thumb
  61              		.thumb_func
  62              		.type	main, %function
  63              	main:
  64              	.LFB64:
  84:main.c        ****     
  65              		.loc 1 84 0
  66              		.cfi_startproc
  67              		@ Volatile: function does not return.
  68              		@ args = 0, pretend = 0, frame = 0
  69              		@ frame_needed = 0, uses_anonymous_args = 0
  70 0000 08B5     		push	{r3, lr}
  71              		.cfi_def_cfa_offset 8
  72              		.cfi_offset 3, -8
  73              		.cfi_offset 14, -4
  86:main.c        ****     Timer_1_Start();
  74              		.loc 1 86 0
  75              		.syntax unified
  76              	@ 86 "main.c" 1
  77 0002 62B6     		CPSIE   i
  78              	@ 0 "" 2
  87:main.c        ****     /* Place your initialization/startup code here (e.g. MyInst_Start()) */
  79              		.loc 1 87 0
  80              		.thumb
  81              		.syntax unified
  82 0004 FFF7FEFF 		bl	Timer_1_Start
  83              	.LVL5:
  89:main.c        ****     isr_1_StartEx(isr_1_Interrupt_custom);
  84              		.loc 1 89 0
  85 0008 FFF7FEFF 		bl	ADC_SAR_1_Start
  86              	.LVL6:
  90:main.c        ****     ADC_SAR_1_StartConvert();
  87              		.loc 1 90 0
  88 000c 0348     		ldr	r0, .L6
  89 000e FFF7FEFF 		bl	isr_1_StartEx
  90              	.LVL7:
  91:main.c        ****     //ADC_SAR_1_IRQ_StartEx(isr_1_Interrupt_custom);
  91              		.loc 1 91 0
  92 0012 FFF7FEFF 		bl	ADC_SAR_1_StartConvert
  93              	.LVL8:
  94:main.c        ****     for(;;)
  94              		.loc 1 94 0
  95 0016 FFF7FEFF 		bl	VDAC8_1_Start
  96              	.LVL9:
  97              	.L4:
  98 001a FEE7     		b	.L4
  99              	.L7:
 100              		.align	2
 101              	.L6:
ARM GAS  C:\Users\smiy200\AppData\Local\Temp\ccKh3Sfa.s 			page 5


 102 001c 00000000 		.word	isr_1_Interrupt_custom
 103              		.cfi_endproc
 104              	.LFE64:
 105              		.size	main, .-main
 106              		.global	test
 107              		.global	count
 108              		.comm	system_state,32,4
 109              		.comm	usbBuffer,64,4
 110              		.comm	entry,64,4
 111              		.comm	line,64,4
 112              		.global	displaystring
 113              		.comm	rf_string,255,4
 114              		.global	flag_KB_string
 115              		.comm	outputC,1,1
 116              		.global	flag_packet
 117              		.global	flag_rx
 118              		.data
 119              		.align	2
 120              		.type	displaystring, %object
 121              		.size	displaystring, 64
 122              	displaystring:
 123 0000 55415254 		.ascii	"UART Lab Exercise 4\012\000"
 123      204C6162 
 123      20457865 
 123      72636973 
 123      6520340A 
 124 0015 00000000 		.space	43
 124      00000000 
 124      00000000 
 124      00000000 
 124      00000000 
 125              		.bss
 126              		.align	1
 127              		.type	test, %object
 128              		.size	test, 1
 129              	test:
 130 0000 00       		.space	1
 131 0001 00       		.space	1
 132              		.type	count, %object
 133              		.size	count, 2
 134              	count:
 135 0002 0000     		.space	2
 136              		.type	flag_KB_string, %object
 137              		.size	flag_KB_string, 1
 138              	flag_KB_string:
 139 0004 00       		.space	1
 140              		.type	flag_packet, %object
 141              		.size	flag_packet, 1
 142              	flag_packet:
 143 0005 00       		.space	1
 144              		.type	flag_rx, %object
 145              		.size	flag_rx, 1
 146              	flag_rx:
 147 0006 00       		.space	1
 148              		.text
 149              	.Letext0:
 150              		.file 2 "c:\\program files (x86)\\cypress\\psoc creator\\4.2\\psoc creator\\import\\gnu\\arm\\5.4.
ARM GAS  C:\Users\smiy200\AppData\Local\Temp\ccKh3Sfa.s 			page 6


 151              		.file 3 "c:\\program files (x86)\\cypress\\psoc creator\\4.2\\psoc creator\\import\\gnu\\arm\\5.4.
 152              		.file 4 "Generated_Source\\PSoC5/cytypes.h"
 153              		.file 5 "Generated_Source\\PSoC5/core_cm3.h"
 154              		.file 6 "Generated_Source\\PSoC5/LED.h"
 155              		.file 7 "Generated_Source\\PSoC5/ADC_SAR_1.h"
 156              		.file 8 "Generated_Source\\PSoC5/VDAC8_1.h"
 157              		.file 9 "Generated_Source\\PSoC5/isr_1.h"
 158              		.file 10 "Generated_Source\\PSoC5/Timer_1.h"