ARM GAS  C:\Users\NITISH~1\AppData\Local\Temp\ccmXfqAY.s 			page 1


   1              		.syntax unified
   2              		.cpu cortex-m3
   3              		.fpu softvfp
   4              		.eabi_attribute 20, 1
   5              		.eabi_attribute 21, 1
   6              		.eabi_attribute 23, 3
   7              		.eabi_attribute 24, 1
   8              		.eabi_attribute 25, 1
   9              		.eabi_attribute 26, 1
  10              		.eabi_attribute 30, 1
  11              		.eabi_attribute 34, 1
  12              		.eabi_attribute 18, 4
  13              		.thumb
  14              		.file	"cyfitter_cfg.c"
  15              		.text
  16              	.Ltext0:
  17              		.cfi_sections	.debug_frame
  18              		.section	.text.cfg_write_bytes32,"ax",%progbits
  19              		.align	2
  20              		.thumb
  21              		.thumb_func
  22              		.type	cfg_write_bytes32, %function
  23              	cfg_write_bytes32:
  24              	.LFB3:
  25              		.file 1 ".\\Generated_Source\\PSoC5\\cyfitter_cfg.c"
   1:.\Generated_Source\PSoC5/cyfitter_cfg.c **** /*******************************************************************************
   2:.\Generated_Source\PSoC5/cyfitter_cfg.c **** * File Name: cyfitter_cfg.c
   3:.\Generated_Source\PSoC5/cyfitter_cfg.c **** * 
   4:.\Generated_Source\PSoC5/cyfitter_cfg.c **** * PSoC Creator  3.3 CP3
   5:.\Generated_Source\PSoC5/cyfitter_cfg.c **** *
   6:.\Generated_Source\PSoC5/cyfitter_cfg.c **** * Description:
   7:.\Generated_Source\PSoC5/cyfitter_cfg.c **** * This file contains device initialization code.
   8:.\Generated_Source\PSoC5/cyfitter_cfg.c **** * Except for the user defined sections in CyClockStartupError(), this file should not be modified.
   9:.\Generated_Source\PSoC5/cyfitter_cfg.c **** * This file is automatically generated by PSoC Creator.
  10:.\Generated_Source\PSoC5/cyfitter_cfg.c **** *
  11:.\Generated_Source\PSoC5/cyfitter_cfg.c **** ********************************************************************************
  12:.\Generated_Source\PSoC5/cyfitter_cfg.c **** * Copyright (c) 2007-2016 Cypress Semiconductor.  All rights reserved.
  13:.\Generated_Source\PSoC5/cyfitter_cfg.c **** * You may use this file only in accordance with the license, terms, conditions, 
  14:.\Generated_Source\PSoC5/cyfitter_cfg.c **** * disclaimers, and limitations in the end user license agreement accompanying 
  15:.\Generated_Source\PSoC5/cyfitter_cfg.c **** * the software package with which this file was provided.
  16:.\Generated_Source\PSoC5/cyfitter_cfg.c **** ********************************************************************************/
  17:.\Generated_Source\PSoC5/cyfitter_cfg.c **** 
  18:.\Generated_Source\PSoC5/cyfitter_cfg.c **** #include <string.h>
  19:.\Generated_Source\PSoC5/cyfitter_cfg.c **** #include "cytypes.h"
  20:.\Generated_Source\PSoC5/cyfitter_cfg.c **** #include "cydevice_trm.h"
  21:.\Generated_Source\PSoC5/cyfitter_cfg.c **** #include "cyfitter.h"
  22:.\Generated_Source\PSoC5/cyfitter_cfg.c **** #include "CyLib.h"
  23:.\Generated_Source\PSoC5/cyfitter_cfg.c **** #include "cyfitter_cfg.h"
  24:.\Generated_Source\PSoC5/cyfitter_cfg.c **** 
  25:.\Generated_Source\PSoC5/cyfitter_cfg.c **** 
  26:.\Generated_Source\PSoC5/cyfitter_cfg.c **** #if defined(__GNUC__) || defined(__ARMCC_VERSION)
  27:.\Generated_Source\PSoC5/cyfitter_cfg.c ****     #define CYPACKED 
  28:.\Generated_Source\PSoC5/cyfitter_cfg.c ****     #define CYPACKED_ATTR __attribute__ ((packed))
  29:.\Generated_Source\PSoC5/cyfitter_cfg.c ****     #define CYALIGNED __attribute__ ((aligned))
  30:.\Generated_Source\PSoC5/cyfitter_cfg.c ****     #define CY_CFG_UNUSED __attribute__ ((unused))
  31:.\Generated_Source\PSoC5/cyfitter_cfg.c ****     #ifndef CY_CFG_SECTION
  32:.\Generated_Source\PSoC5/cyfitter_cfg.c ****         #define CY_CFG_SECTION __attribute__ ((section(".psocinit")))
ARM GAS  C:\Users\NITISH~1\AppData\Local\Temp\ccmXfqAY.s 			page 2


  33:.\Generated_Source\PSoC5/cyfitter_cfg.c ****     #endif
  34:.\Generated_Source\PSoC5/cyfitter_cfg.c ****     
  35:.\Generated_Source\PSoC5/cyfitter_cfg.c ****     #if defined(__ARMCC_VERSION)
  36:.\Generated_Source\PSoC5/cyfitter_cfg.c ****         #define CY_CFG_MEMORY_BARRIER() __memory_changed()
  37:.\Generated_Source\PSoC5/cyfitter_cfg.c ****     #else
  38:.\Generated_Source\PSoC5/cyfitter_cfg.c ****         #define CY_CFG_MEMORY_BARRIER() __sync_synchronize()
  39:.\Generated_Source\PSoC5/cyfitter_cfg.c ****     #endif
  40:.\Generated_Source\PSoC5/cyfitter_cfg.c ****     
  41:.\Generated_Source\PSoC5/cyfitter_cfg.c **** #elif defined(__ICCARM__)
  42:.\Generated_Source\PSoC5/cyfitter_cfg.c ****     #include <intrinsics.h>
  43:.\Generated_Source\PSoC5/cyfitter_cfg.c **** 
  44:.\Generated_Source\PSoC5/cyfitter_cfg.c ****     #define CYPACKED __packed
  45:.\Generated_Source\PSoC5/cyfitter_cfg.c ****     #define CYPACKED_ATTR 
  46:.\Generated_Source\PSoC5/cyfitter_cfg.c ****     #define CYALIGNED _Pragma("data_alignment=4")
  47:.\Generated_Source\PSoC5/cyfitter_cfg.c ****     #define CY_CFG_UNUSED _Pragma("diag_suppress=Pe177")
  48:.\Generated_Source\PSoC5/cyfitter_cfg.c ****     #define CY_CFG_SECTION _Pragma("location=\".psocinit\"")
  49:.\Generated_Source\PSoC5/cyfitter_cfg.c ****     
  50:.\Generated_Source\PSoC5/cyfitter_cfg.c ****     #define CY_CFG_MEMORY_BARRIER() __DMB()
  51:.\Generated_Source\PSoC5/cyfitter_cfg.c ****     
  52:.\Generated_Source\PSoC5/cyfitter_cfg.c **** #else
  53:.\Generated_Source\PSoC5/cyfitter_cfg.c ****     #error Unsupported toolchain
  54:.\Generated_Source\PSoC5/cyfitter_cfg.c **** #endif
  55:.\Generated_Source\PSoC5/cyfitter_cfg.c **** 
  56:.\Generated_Source\PSoC5/cyfitter_cfg.c **** 
  57:.\Generated_Source\PSoC5/cyfitter_cfg.c **** CY_CFG_UNUSED
  58:.\Generated_Source\PSoC5/cyfitter_cfg.c **** static void CYMEMZERO(void *s, size_t n);
  59:.\Generated_Source\PSoC5/cyfitter_cfg.c **** CY_CFG_UNUSED
  60:.\Generated_Source\PSoC5/cyfitter_cfg.c **** static void CYMEMZERO(void *s, size_t n)
  61:.\Generated_Source\PSoC5/cyfitter_cfg.c **** {
  62:.\Generated_Source\PSoC5/cyfitter_cfg.c **** 	(void)memset(s, 0, n);
  63:.\Generated_Source\PSoC5/cyfitter_cfg.c **** }
  64:.\Generated_Source\PSoC5/cyfitter_cfg.c **** CY_CFG_UNUSED
  65:.\Generated_Source\PSoC5/cyfitter_cfg.c **** static void CYCONFIGCPY(void *dest, const void *src, size_t n);
  66:.\Generated_Source\PSoC5/cyfitter_cfg.c **** CY_CFG_UNUSED
  67:.\Generated_Source\PSoC5/cyfitter_cfg.c **** static void CYCONFIGCPY(void *dest, const void *src, size_t n)
  68:.\Generated_Source\PSoC5/cyfitter_cfg.c **** {
  69:.\Generated_Source\PSoC5/cyfitter_cfg.c **** 	(void)memcpy(dest, src, n);
  70:.\Generated_Source\PSoC5/cyfitter_cfg.c **** }
  71:.\Generated_Source\PSoC5/cyfitter_cfg.c **** CY_CFG_UNUSED
  72:.\Generated_Source\PSoC5/cyfitter_cfg.c **** static void CYCONFIGCPYCODE(void *dest, const void *src, size_t n);
  73:.\Generated_Source\PSoC5/cyfitter_cfg.c **** CY_CFG_UNUSED
  74:.\Generated_Source\PSoC5/cyfitter_cfg.c **** static void CYCONFIGCPYCODE(void *dest, const void *src, size_t n)
  75:.\Generated_Source\PSoC5/cyfitter_cfg.c **** {
  76:.\Generated_Source\PSoC5/cyfitter_cfg.c **** 	(void)memcpy(dest, src, n);
  77:.\Generated_Source\PSoC5/cyfitter_cfg.c **** }
  78:.\Generated_Source\PSoC5/cyfitter_cfg.c **** 
  79:.\Generated_Source\PSoC5/cyfitter_cfg.c **** 
  80:.\Generated_Source\PSoC5/cyfitter_cfg.c **** 
  81:.\Generated_Source\PSoC5/cyfitter_cfg.c **** /* Clock startup error codes                                                   */
  82:.\Generated_Source\PSoC5/cyfitter_cfg.c **** #define CYCLOCKSTART_NO_ERROR    0u
  83:.\Generated_Source\PSoC5/cyfitter_cfg.c **** #define CYCLOCKSTART_XTAL_ERROR  1u
  84:.\Generated_Source\PSoC5/cyfitter_cfg.c **** #define CYCLOCKSTART_32KHZ_ERROR 2u
  85:.\Generated_Source\PSoC5/cyfitter_cfg.c **** #define CYCLOCKSTART_PLL_ERROR   3u
  86:.\Generated_Source\PSoC5/cyfitter_cfg.c **** 
  87:.\Generated_Source\PSoC5/cyfitter_cfg.c **** #ifdef CY_NEED_CYCLOCKSTARTUPERROR
  88:.\Generated_Source\PSoC5/cyfitter_cfg.c **** /*******************************************************************************
  89:.\Generated_Source\PSoC5/cyfitter_cfg.c **** * Function Name: CyClockStartupError
ARM GAS  C:\Users\NITISH~1\AppData\Local\Temp\ccmXfqAY.s 			page 3


  90:.\Generated_Source\PSoC5/cyfitter_cfg.c **** ********************************************************************************
  91:.\Generated_Source\PSoC5/cyfitter_cfg.c **** * Summary:
  92:.\Generated_Source\PSoC5/cyfitter_cfg.c **** *  If an error is encountered during clock configuration (crystal startup error,
  93:.\Generated_Source\PSoC5/cyfitter_cfg.c **** *  PLL lock error, etc.), the system will end up here.  Unless reimplemented by
  94:.\Generated_Source\PSoC5/cyfitter_cfg.c **** *  the customer, this function will stop in an infinite loop.
  95:.\Generated_Source\PSoC5/cyfitter_cfg.c **** *
  96:.\Generated_Source\PSoC5/cyfitter_cfg.c **** * Parameters:
  97:.\Generated_Source\PSoC5/cyfitter_cfg.c **** *   void
  98:.\Generated_Source\PSoC5/cyfitter_cfg.c **** *
  99:.\Generated_Source\PSoC5/cyfitter_cfg.c **** * Return:
 100:.\Generated_Source\PSoC5/cyfitter_cfg.c **** *   void
 101:.\Generated_Source\PSoC5/cyfitter_cfg.c **** *
 102:.\Generated_Source\PSoC5/cyfitter_cfg.c **** *******************************************************************************/
 103:.\Generated_Source\PSoC5/cyfitter_cfg.c **** CY_CFG_UNUSED
 104:.\Generated_Source\PSoC5/cyfitter_cfg.c **** static void CyClockStartupError(uint8 errorCode);
 105:.\Generated_Source\PSoC5/cyfitter_cfg.c **** CY_CFG_UNUSED
 106:.\Generated_Source\PSoC5/cyfitter_cfg.c **** static void CyClockStartupError(uint8 errorCode)
 107:.\Generated_Source\PSoC5/cyfitter_cfg.c **** {
 108:.\Generated_Source\PSoC5/cyfitter_cfg.c ****     /* To remove the compiler warning if errorCode not used.                */
 109:.\Generated_Source\PSoC5/cyfitter_cfg.c ****     errorCode = errorCode;
 110:.\Generated_Source\PSoC5/cyfitter_cfg.c **** 
 111:.\Generated_Source\PSoC5/cyfitter_cfg.c ****     /* `#START CyClockStartupError` */
 112:.\Generated_Source\PSoC5/cyfitter_cfg.c **** 
 113:.\Generated_Source\PSoC5/cyfitter_cfg.c ****     /* If we have a clock startup error (bad MHz crystal, PLL lock, etc.),  */
 114:.\Generated_Source\PSoC5/cyfitter_cfg.c ****     /* we will end up here to allow the customer to implement something to  */
 115:.\Generated_Source\PSoC5/cyfitter_cfg.c ****     /* deal with the clock condition.                                       */
 116:.\Generated_Source\PSoC5/cyfitter_cfg.c **** 
 117:.\Generated_Source\PSoC5/cyfitter_cfg.c ****     /* `#END` */
 118:.\Generated_Source\PSoC5/cyfitter_cfg.c **** 
 119:.\Generated_Source\PSoC5/cyfitter_cfg.c ****     /* If nothing else, stop here since the clocks have not started         */
 120:.\Generated_Source\PSoC5/cyfitter_cfg.c ****     /* correctly.                                                           */
 121:.\Generated_Source\PSoC5/cyfitter_cfg.c ****     while(1) {}
 122:.\Generated_Source\PSoC5/cyfitter_cfg.c **** }
 123:.\Generated_Source\PSoC5/cyfitter_cfg.c **** #endif
 124:.\Generated_Source\PSoC5/cyfitter_cfg.c **** 
 125:.\Generated_Source\PSoC5/cyfitter_cfg.c **** #define CY_CFG_BASE_ADDR_COUNT 25u
 126:.\Generated_Source\PSoC5/cyfitter_cfg.c **** CYPACKED typedef struct
 127:.\Generated_Source\PSoC5/cyfitter_cfg.c **** {
 128:.\Generated_Source\PSoC5/cyfitter_cfg.c **** 	uint8 offset;
 129:.\Generated_Source\PSoC5/cyfitter_cfg.c **** 	uint8 value;
 130:.\Generated_Source\PSoC5/cyfitter_cfg.c **** } CYPACKED_ATTR cy_cfg_addrvalue_t;
 131:.\Generated_Source\PSoC5/cyfitter_cfg.c **** 
 132:.\Generated_Source\PSoC5/cyfitter_cfg.c **** #define cy_cfg_addr_table ((const uint32 CYFAR *)0x48000000u)
 133:.\Generated_Source\PSoC5/cyfitter_cfg.c **** #define cy_cfg_data_table ((const cy_cfg_addrvalue_t CYFAR *)0x48000064u)
 134:.\Generated_Source\PSoC5/cyfitter_cfg.c **** 
 135:.\Generated_Source\PSoC5/cyfitter_cfg.c **** /* IOPINS0_8 Address: CYREG_PRT15_DR Size (bytes): 10 */
 136:.\Generated_Source\PSoC5/cyfitter_cfg.c **** #define BS_IOPINS0_8_VAL ((const uint8 CYFAR *)0x480003F4u)
 137:.\Generated_Source\PSoC5/cyfitter_cfg.c **** 
 138:.\Generated_Source\PSoC5/cyfitter_cfg.c **** /* IOPINS0_2 Address: CYREG_PRT2_DR Size (bytes): 10 */
 139:.\Generated_Source\PSoC5/cyfitter_cfg.c **** #define BS_IOPINS0_2_VAL ((const uint8 CYFAR *)0x48000400u)
 140:.\Generated_Source\PSoC5/cyfitter_cfg.c **** 
 141:.\Generated_Source\PSoC5/cyfitter_cfg.c **** 
 142:.\Generated_Source\PSoC5/cyfitter_cfg.c **** /*******************************************************************************
 143:.\Generated_Source\PSoC5/cyfitter_cfg.c **** * Function Name: cfg_write_bytes32
 144:.\Generated_Source\PSoC5/cyfitter_cfg.c **** ********************************************************************************
 145:.\Generated_Source\PSoC5/cyfitter_cfg.c **** * Summary:
 146:.\Generated_Source\PSoC5/cyfitter_cfg.c **** *  This function is used for setting up the chip configuration areas that
ARM GAS  C:\Users\NITISH~1\AppData\Local\Temp\ccmXfqAY.s 			page 4


 147:.\Generated_Source\PSoC5/cyfitter_cfg.c **** *  contain relatively sparse data.
 148:.\Generated_Source\PSoC5/cyfitter_cfg.c **** *
 149:.\Generated_Source\PSoC5/cyfitter_cfg.c **** * Parameters:
 150:.\Generated_Source\PSoC5/cyfitter_cfg.c **** *   void
 151:.\Generated_Source\PSoC5/cyfitter_cfg.c **** *
 152:.\Generated_Source\PSoC5/cyfitter_cfg.c **** * Return:
 153:.\Generated_Source\PSoC5/cyfitter_cfg.c **** *   void
 154:.\Generated_Source\PSoC5/cyfitter_cfg.c **** *
 155:.\Generated_Source\PSoC5/cyfitter_cfg.c **** *******************************************************************************/
 156:.\Generated_Source\PSoC5/cyfitter_cfg.c **** static void cfg_write_bytes32(const uint32 addr_table[], const cy_cfg_addrvalue_t data_table[]);
 157:.\Generated_Source\PSoC5/cyfitter_cfg.c **** static void cfg_write_bytes32(const uint32 addr_table[], const cy_cfg_addrvalue_t data_table[])
 158:.\Generated_Source\PSoC5/cyfitter_cfg.c **** {
  26              		.loc 1 158 0
  27              		.cfi_startproc
  28              		@ args = 0, pretend = 0, frame = 0
  29              		@ frame_needed = 0, uses_anonymous_args = 0
  30              		@ link register save eliminated.
  31              	.LVL0:
  32 0000 F0B4     		push	{r4, r5, r6, r7}
  33              		.cfi_def_cfa_offset 16
  34              		.cfi_offset 4, -16
  35              		.cfi_offset 5, -12
  36              		.cfi_offset 6, -8
  37              		.cfi_offset 7, -4
  38              	.LVL1:
 159:.\Generated_Source\PSoC5/cyfitter_cfg.c **** 	/* For 32-bit little-endian architectures */
 160:.\Generated_Source\PSoC5/cyfitter_cfg.c **** 	uint32 i, j = 0u;
  39              		.loc 1 160 0
  40 0002 0022     		movs	r2, #0
 161:.\Generated_Source\PSoC5/cyfitter_cfg.c **** 	for (i = 0u; i < CY_CFG_BASE_ADDR_COUNT; i++)
  41              		.loc 1 161 0
  42 0004 1746     		mov	r7, r2
  43 0006 11E0     		b	.L2
  44              	.LVL2:
  45              	.L5:
  46              	.LBB2:
 162:.\Generated_Source\PSoC5/cyfitter_cfg.c **** 	{
 163:.\Generated_Source\PSoC5/cyfitter_cfg.c **** 		uint32 baseAddr = addr_table[i];
  47              		.loc 1 163 0
  48 0008 50F82760 		ldr	r6, [r0, r7, lsl #2]
  49              	.LVL3:
 164:.\Generated_Source\PSoC5/cyfitter_cfg.c **** 		uint8 count = (uint8)baseAddr;
  50              		.loc 1 164 0
  51 000c F3B2     		uxtb	r3, r6
  52              	.LVL4:
 165:.\Generated_Source\PSoC5/cyfitter_cfg.c **** 		baseAddr &= 0xFFFFFF00u;
  53              		.loc 1 165 0
  54 000e 26F0FF06 		bic	r6, r6, #255
  55              	.LVL5:
 166:.\Generated_Source\PSoC5/cyfitter_cfg.c **** 		while (count != 0u)
  56              		.loc 1 166 0
  57 0012 08E0     		b	.L3
  58              	.L4:
 167:.\Generated_Source\PSoC5/cyfitter_cfg.c **** 		{
 168:.\Generated_Source\PSoC5/cyfitter_cfg.c **** 			CY_SET_XTND_REG8((void CYFAR *)(baseAddr + data_table[j].offset), data_table[j].value);
  59              		.loc 1 168 0
  60 0014 01EB4205 		add	r5, r1, r2, lsl #1
ARM GAS  C:\Users\NITISH~1\AppData\Local\Temp\ccmXfqAY.s 			page 5


  61 0018 11F81240 		ldrb	r4, [r1, r2, lsl #1]	@ zero_extendqisi2
  62 001c 6D78     		ldrb	r5, [r5, #1]	@ zero_extendqisi2
  63 001e A555     		strb	r5, [r4, r6]
 169:.\Generated_Source\PSoC5/cyfitter_cfg.c **** 			j++;
  64              		.loc 1 169 0
  65 0020 0132     		adds	r2, r2, #1
  66              	.LVL6:
 170:.\Generated_Source\PSoC5/cyfitter_cfg.c **** 			count--;
  67              		.loc 1 170 0
  68 0022 013B     		subs	r3, r3, #1
  69              	.LVL7:
  70 0024 DBB2     		uxtb	r3, r3
  71              	.LVL8:
  72              	.L3:
 166:.\Generated_Source\PSoC5/cyfitter_cfg.c **** 		{
  73              		.loc 1 166 0
  74 0026 002B     		cmp	r3, #0
  75 0028 F4D1     		bne	.L4
  76              	.LBE2:
 161:.\Generated_Source\PSoC5/cyfitter_cfg.c **** 	{
  77              		.loc 1 161 0 discriminator 2
  78 002a 0137     		adds	r7, r7, #1
  79              	.LVL9:
  80              	.L2:
 161:.\Generated_Source\PSoC5/cyfitter_cfg.c **** 	{
  81              		.loc 1 161 0 is_stmt 0 discriminator 1
  82 002c 182F     		cmp	r7, #24
  83 002e EBD9     		bls	.L5
 171:.\Generated_Source\PSoC5/cyfitter_cfg.c **** 		}
 172:.\Generated_Source\PSoC5/cyfitter_cfg.c **** 	}
 173:.\Generated_Source\PSoC5/cyfitter_cfg.c **** }
  84              		.loc 1 173 0 is_stmt 1
  85 0030 F0BC     		pop	{r4, r5, r6, r7}
  86              		.cfi_restore 7
  87              		.cfi_restore 6
  88              		.cfi_restore 5
  89              		.cfi_restore 4
  90              		.cfi_def_cfa_offset 0
  91              	.LVL10:
  92 0032 7047     		bx	lr
  93              		.cfi_endproc
  94              	.LFE3:
  95              		.size	cfg_write_bytes32, .-cfg_write_bytes32
  96              		.section	.text.AnalogSetDefault,"ax",%progbits
  97              		.align	2
  98              		.thumb
  99              		.thumb_func
 100              		.type	AnalogSetDefault, %function
 101              	AnalogSetDefault:
 102              	.LFB5:
 174:.\Generated_Source\PSoC5/cyfitter_cfg.c **** 
 175:.\Generated_Source\PSoC5/cyfitter_cfg.c **** /*******************************************************************************
 176:.\Generated_Source\PSoC5/cyfitter_cfg.c **** * Function Name: ClockSetup
 177:.\Generated_Source\PSoC5/cyfitter_cfg.c **** ********************************************************************************
 178:.\Generated_Source\PSoC5/cyfitter_cfg.c **** *
 179:.\Generated_Source\PSoC5/cyfitter_cfg.c **** * Summary:
 180:.\Generated_Source\PSoC5/cyfitter_cfg.c **** *  Performs the initialization of all of the clocks in the device based on the
ARM GAS  C:\Users\NITISH~1\AppData\Local\Temp\ccmXfqAY.s 			page 6


 181:.\Generated_Source\PSoC5/cyfitter_cfg.c **** *  settings in the Clock tab of the DWR.  This includes enabling the requested
 182:.\Generated_Source\PSoC5/cyfitter_cfg.c **** *  clocks and setting the necessary dividers to produce the desired frequency. 
 183:.\Generated_Source\PSoC5/cyfitter_cfg.c **** *
 184:.\Generated_Source\PSoC5/cyfitter_cfg.c **** * Parameters:
 185:.\Generated_Source\PSoC5/cyfitter_cfg.c **** *  void
 186:.\Generated_Source\PSoC5/cyfitter_cfg.c **** *
 187:.\Generated_Source\PSoC5/cyfitter_cfg.c **** * Return:
 188:.\Generated_Source\PSoC5/cyfitter_cfg.c **** *  void
 189:.\Generated_Source\PSoC5/cyfitter_cfg.c **** *
 190:.\Generated_Source\PSoC5/cyfitter_cfg.c **** *******************************************************************************/
 191:.\Generated_Source\PSoC5/cyfitter_cfg.c **** static void ClockSetup(void);
 192:.\Generated_Source\PSoC5/cyfitter_cfg.c **** static void ClockSetup(void)
 193:.\Generated_Source\PSoC5/cyfitter_cfg.c **** {
 194:.\Generated_Source\PSoC5/cyfitter_cfg.c **** 	uint32 timeout;
 195:.\Generated_Source\PSoC5/cyfitter_cfg.c **** 	uint8 pllLock;
 196:.\Generated_Source\PSoC5/cyfitter_cfg.c **** 
 197:.\Generated_Source\PSoC5/cyfitter_cfg.c **** 
 198:.\Generated_Source\PSoC5/cyfitter_cfg.c **** 	/* Configure Digital Clocks based on settings from Clock DWR */
 199:.\Generated_Source\PSoC5/cyfitter_cfg.c **** 	CY_SET_XTND_REG16((void CYFAR *)(CYREG_CLKDIST_DCFG0_CFG0), 0x0033u);
 200:.\Generated_Source\PSoC5/cyfitter_cfg.c **** 	CY_SET_XTND_REG8((void CYFAR *)(CYREG_CLKDIST_DCFG0_CFG0 + 0x2u), 0x18u);
 201:.\Generated_Source\PSoC5/cyfitter_cfg.c **** 
 202:.\Generated_Source\PSoC5/cyfitter_cfg.c **** 	/* Configure ILO based on settings from Clock DWR */
 203:.\Generated_Source\PSoC5/cyfitter_cfg.c **** 	CY_SET_XTND_REG8((void CYFAR *)(CYREG_SLOWCLK_ILO_CR0), 0x06u);
 204:.\Generated_Source\PSoC5/cyfitter_cfg.c **** 
 205:.\Generated_Source\PSoC5/cyfitter_cfg.c **** 	/* Configure IMO based on settings from Clock DWR */
 206:.\Generated_Source\PSoC5/cyfitter_cfg.c **** 	CY_SET_XTND_REG8((void CYFAR *)(CYREG_FASTCLK_IMO_CR), 0x52u);
 207:.\Generated_Source\PSoC5/cyfitter_cfg.c **** 	CY_SET_XTND_REG8((void CYFAR *)(CYREG_IMO_TR1), (CY_GET_XTND_REG8((void CYFAR *)CYREG_FLSHID_CUST_
 208:.\Generated_Source\PSoC5/cyfitter_cfg.c **** 
 209:.\Generated_Source\PSoC5/cyfitter_cfg.c **** 	/* Configure Bus/Master Clock based on settings from Clock DWR */
 210:.\Generated_Source\PSoC5/cyfitter_cfg.c **** 	CY_SET_XTND_REG16((void CYFAR *)(CYREG_CLKDIST_MSTR0), 0x0000u);
 211:.\Generated_Source\PSoC5/cyfitter_cfg.c **** 
 212:.\Generated_Source\PSoC5/cyfitter_cfg.c **** 	/* Configure PLL based on settings from Clock DWR */
 213:.\Generated_Source\PSoC5/cyfitter_cfg.c **** 	CY_SET_XTND_REG16((void CYFAR *)(CYREG_FASTCLK_PLL_P), 0x0708u);
 214:.\Generated_Source\PSoC5/cyfitter_cfg.c **** 	CY_SET_XTND_REG16((void CYFAR *)(CYREG_FASTCLK_PLL_CFG0), 0x1251u);
 215:.\Generated_Source\PSoC5/cyfitter_cfg.c **** 	/* Wait up to 250us for the PLL to lock */
 216:.\Generated_Source\PSoC5/cyfitter_cfg.c **** 	pllLock = 0u;
 217:.\Generated_Source\PSoC5/cyfitter_cfg.c **** 	for (timeout = 250u / 10u; (timeout > 0u) && (pllLock != 0x03u); timeout--)
 218:.\Generated_Source\PSoC5/cyfitter_cfg.c **** 	{ 
 219:.\Generated_Source\PSoC5/cyfitter_cfg.c **** 		pllLock = 0x03u & ((uint8)((uint8)pllLock << 1) | ((CY_GET_XTND_REG8((void CYFAR *)CYREG_FASTCLK_
 220:.\Generated_Source\PSoC5/cyfitter_cfg.c **** 		CyDelayCycles(10u * 48u); /* Delay 10us based on 48MHz clock */
 221:.\Generated_Source\PSoC5/cyfitter_cfg.c **** 	}
 222:.\Generated_Source\PSoC5/cyfitter_cfg.c **** 	CY_SET_XTND_REG8((void CYFAR *)(CYREG_CLKDIST_MSTR0), 0x07u);
 223:.\Generated_Source\PSoC5/cyfitter_cfg.c **** 	CY_SET_XTND_REG8((void CYFAR *)(CYREG_CLKDIST_BCFG0), 0x00u);
 224:.\Generated_Source\PSoC5/cyfitter_cfg.c **** 	CY_SET_XTND_REG8((void CYFAR *)(CYREG_CLKDIST_BCFG2), 0x48u);
 225:.\Generated_Source\PSoC5/cyfitter_cfg.c **** 	CY_SET_XTND_REG8((void CYFAR *)(CYREG_CLKDIST_MSTR0), 0x00u);
 226:.\Generated_Source\PSoC5/cyfitter_cfg.c **** 
 227:.\Generated_Source\PSoC5/cyfitter_cfg.c **** 	/* Configure USB Clock based on settings from Clock DWR */
 228:.\Generated_Source\PSoC5/cyfitter_cfg.c **** 	CY_SET_XTND_REG8((void CYFAR *)(CYREG_CLKDIST_UCFG), 0x00u);
 229:.\Generated_Source\PSoC5/cyfitter_cfg.c **** 	CY_SET_XTND_REG8((void CYFAR *)(CYREG_CLKDIST_LD), 0x02u);
 230:.\Generated_Source\PSoC5/cyfitter_cfg.c **** 
 231:.\Generated_Source\PSoC5/cyfitter_cfg.c **** 	CY_SET_XTND_REG8((void CYFAR *)(CYREG_PM_ACT_CFG2), ((CY_GET_XTND_REG8((void CYFAR *)CYREG_PM_ACT_
 232:.\Generated_Source\PSoC5/cyfitter_cfg.c **** }
 233:.\Generated_Source\PSoC5/cyfitter_cfg.c **** 
 234:.\Generated_Source\PSoC5/cyfitter_cfg.c **** 
 235:.\Generated_Source\PSoC5/cyfitter_cfg.c **** /* Analog API Functions */
 236:.\Generated_Source\PSoC5/cyfitter_cfg.c **** 
 237:.\Generated_Source\PSoC5/cyfitter_cfg.c **** 
ARM GAS  C:\Users\NITISH~1\AppData\Local\Temp\ccmXfqAY.s 			page 7


 238:.\Generated_Source\PSoC5/cyfitter_cfg.c **** /*******************************************************************************
 239:.\Generated_Source\PSoC5/cyfitter_cfg.c **** * Function Name: AnalogSetDefault
 240:.\Generated_Source\PSoC5/cyfitter_cfg.c **** ********************************************************************************
 241:.\Generated_Source\PSoC5/cyfitter_cfg.c **** *
 242:.\Generated_Source\PSoC5/cyfitter_cfg.c **** * Summary:
 243:.\Generated_Source\PSoC5/cyfitter_cfg.c **** *  Sets up the analog portions of the chip to default values based on chip
 244:.\Generated_Source\PSoC5/cyfitter_cfg.c **** *  configuration options from the project.
 245:.\Generated_Source\PSoC5/cyfitter_cfg.c **** *
 246:.\Generated_Source\PSoC5/cyfitter_cfg.c **** * Parameters:
 247:.\Generated_Source\PSoC5/cyfitter_cfg.c **** *  void
 248:.\Generated_Source\PSoC5/cyfitter_cfg.c **** *
 249:.\Generated_Source\PSoC5/cyfitter_cfg.c **** * Return:
 250:.\Generated_Source\PSoC5/cyfitter_cfg.c **** *  void
 251:.\Generated_Source\PSoC5/cyfitter_cfg.c **** *
 252:.\Generated_Source\PSoC5/cyfitter_cfg.c **** *******************************************************************************/
 253:.\Generated_Source\PSoC5/cyfitter_cfg.c **** static void AnalogSetDefault(void);
 254:.\Generated_Source\PSoC5/cyfitter_cfg.c **** static void AnalogSetDefault(void)
 255:.\Generated_Source\PSoC5/cyfitter_cfg.c **** {
 103              		.loc 1 255 0
 104              		.cfi_startproc
 105              		@ args = 0, pretend = 0, frame = 0
 106              		@ frame_needed = 0, uses_anonymous_args = 0
 107              		@ link register save eliminated.
 256:.\Generated_Source\PSoC5/cyfitter_cfg.c **** 	uint8 bg_xover_inl_trim = CY_GET_XTND_REG8((void CYFAR *)(CYREG_FLSHID_MFG_CFG_BG_XOVER_INL_TRIM +
 108              		.loc 1 256 0
 109 0000 064B     		ldr	r3, .L8
 110 0002 1B78     		ldrb	r3, [r3]	@ zero_extendqisi2
 111 0004 DBB2     		uxtb	r3, r3
 112              	.LVL11:
 257:.\Generated_Source\PSoC5/cyfitter_cfg.c **** 	CY_SET_XTND_REG8((void CYFAR *)(CYREG_BG_DFT0), (bg_xover_inl_trim & 0x07u));
 113              		.loc 1 257 0
 114 0006 03F00701 		and	r1, r3, #7
 115 000a 054A     		ldr	r2, .L8+4
 116 000c 1170     		strb	r1, [r2]
 258:.\Generated_Source\PSoC5/cyfitter_cfg.c **** 	CY_SET_XTND_REG8((void CYFAR *)(CYREG_BG_DFT1), ((bg_xover_inl_trim >> 4) & 0x0Fu));
 117              		.loc 1 258 0
 118 000e 1B09     		lsrs	r3, r3, #4
 119              	.LVL12:
 120 0010 0132     		adds	r2, r2, #1
 121 0012 1370     		strb	r3, [r2]
 259:.\Generated_Source\PSoC5/cyfitter_cfg.c **** 	CY_SET_XTND_REG8((void CYFAR *)CYREG_PUMP_CR0, 0x44u);
 122              		.loc 1 259 0
 123 0014 4422     		movs	r2, #68
 124 0016 034B     		ldr	r3, .L8+8
 125 0018 1A70     		strb	r2, [r3]
 126 001a 7047     		bx	lr
 127              	.L9:
 128              		.align	2
 129              	.L8:
 130 001c CF010049 		.word	1224737231
 131 0020 6E580040 		.word	1073764462
 132 0024 76580040 		.word	1073764470
 133              		.cfi_endproc
 134              	.LFE5:
 135              		.size	AnalogSetDefault, .-AnalogSetDefault
 136              		.section	.text.CYMEMZERO,"ax",%progbits
 137              		.align	2
ARM GAS  C:\Users\NITISH~1\AppData\Local\Temp\ccmXfqAY.s 			page 8


 138              		.thumb
 139              		.thumb_func
 140              		.type	CYMEMZERO, %function
 141              	CYMEMZERO:
 142              	.LFB0:
  61:.\Generated_Source\PSoC5/cyfitter_cfg.c **** 	(void)memset(s, 0, n);
 143              		.loc 1 61 0
 144              		.cfi_startproc
 145              		@ args = 0, pretend = 0, frame = 0
 146              		@ frame_needed = 0, uses_anonymous_args = 0
 147              	.LVL13:
 148 0000 08B5     		push	{r3, lr}
 149              		.cfi_def_cfa_offset 8
 150              		.cfi_offset 3, -8
 151              		.cfi_offset 14, -4
 152 0002 0A46     		mov	r2, r1
  62:.\Generated_Source\PSoC5/cyfitter_cfg.c **** }
 153              		.loc 1 62 0
 154 0004 0021     		movs	r1, #0
 155              	.LVL14:
 156 0006 FFF7FEFF 		bl	memset
 157              	.LVL15:
 158 000a 08BD     		pop	{r3, pc}
 159              		.cfi_endproc
 160              	.LFE0:
 161              		.size	CYMEMZERO, .-CYMEMZERO
 162              		.section	.text.ClockSetup,"ax",%progbits
 163              		.align	2
 164              		.thumb
 165              		.thumb_func
 166              		.type	ClockSetup, %function
 167              	ClockSetup:
 168              	.LFB4:
 193:.\Generated_Source\PSoC5/cyfitter_cfg.c **** 	uint32 timeout;
 169              		.loc 1 193 0
 170              		.cfi_startproc
 171              		@ args = 0, pretend = 0, frame = 0
 172              		@ frame_needed = 0, uses_anonymous_args = 0
 173 0000 38B5     		push	{r3, r4, r5, lr}
 174              		.cfi_def_cfa_offset 16
 175              		.cfi_offset 3, -16
 176              		.cfi_offset 4, -12
 177              		.cfi_offset 5, -8
 178              		.cfi_offset 14, -4
 199:.\Generated_Source\PSoC5/cyfitter_cfg.c **** 	CY_SET_XTND_REG8((void CYFAR *)(CYREG_CLKDIST_DCFG0_CFG0 + 0x2u), 0x18u);
 179              		.loc 1 199 0
 180 0002 3322     		movs	r2, #51
 181 0004 224B     		ldr	r3, .L17
 182 0006 1A80     		strh	r2, [r3]	@ movhi
 200:.\Generated_Source\PSoC5/cyfitter_cfg.c **** 
 183              		.loc 1 200 0
 184 0008 1822     		movs	r2, #24
 185 000a 0233     		adds	r3, r3, #2
 186 000c 1A70     		strb	r2, [r3]
 203:.\Generated_Source\PSoC5/cyfitter_cfg.c **** 
 187              		.loc 1 203 0
 188 000e 0622     		movs	r2, #6
ARM GAS  C:\Users\NITISH~1\AppData\Local\Temp\ccmXfqAY.s 			page 9


 189 0010 03F27E23 		addw	r3, r3, #638
 190 0014 1A70     		strb	r2, [r3]
 206:.\Generated_Source\PSoC5/cyfitter_cfg.c **** 	CY_SET_XTND_REG8((void CYFAR *)(CYREG_IMO_TR1), (CY_GET_XTND_REG8((void CYFAR *)CYREG_FLSHID_CUST_
 191              		.loc 1 206 0
 192 0016 5222     		movs	r2, #82
 193 0018 A3F58073 		sub	r3, r3, #256
 194 001c 1A70     		strb	r2, [r3]
 207:.\Generated_Source\PSoC5/cyfitter_cfg.c **** 
 195              		.loc 1 207 0
 196 001e 1D4B     		ldr	r3, .L17+4
 197 0020 1B78     		ldrb	r3, [r3]	@ zero_extendqisi2
 198 0022 DBB2     		uxtb	r3, r3
 199 0024 1C4A     		ldr	r2, .L17+8
 200 0026 1370     		strb	r3, [r2]
 210:.\Generated_Source\PSoC5/cyfitter_cfg.c **** 
 201              		.loc 1 210 0
 202 0028 0024     		movs	r4, #0
 203 002a 1C4B     		ldr	r3, .L17+12
 204 002c 1C80     		strh	r4, [r3]	@ movhi
 213:.\Generated_Source\PSoC5/cyfitter_cfg.c **** 	CY_SET_XTND_REG16((void CYFAR *)(CYREG_FASTCLK_PLL_CFG0), 0x1251u);
 205              		.loc 1 213 0
 206 002e 4FF4E162 		mov	r2, #1800
 207 0032 03F21E23 		addw	r3, r3, #542
 208 0036 1A80     		strh	r2, [r3]	@ movhi
 214:.\Generated_Source\PSoC5/cyfitter_cfg.c **** 	/* Wait up to 250us for the PLL to lock */
 209              		.loc 1 214 0
 210 0038 41F25122 		movw	r2, #4689
 211 003c 023B     		subs	r3, r3, #2
 212 003e 1A80     		strh	r2, [r3]	@ movhi
 213              	.LVL16:
 217:.\Generated_Source\PSoC5/cyfitter_cfg.c **** 	{ 
 214              		.loc 1 217 0
 215 0040 1925     		movs	r5, #25
 216 0042 0CE0     		b	.L13
 217              	.LVL17:
 218              	.L15:
 219:.\Generated_Source\PSoC5/cyfitter_cfg.c **** 		CyDelayCycles(10u * 48u); /* Delay 10us based on 48MHz clock */
 219              		.loc 1 219 0 discriminator 4
 220 0044 164B     		ldr	r3, .L17+16
 221 0046 1B78     		ldrb	r3, [r3]	@ zero_extendqisi2
 222 0048 03F00103 		and	r3, r3, #1
 223 004c 43EA4404 		orr	r4, r3, r4, lsl #1
 224              	.LVL18:
 225 0050 04F00304 		and	r4, r4, #3
 226              	.LVL19:
 220:.\Generated_Source\PSoC5/cyfitter_cfg.c **** 	}
 227              		.loc 1 220 0 discriminator 4
 228 0054 4FF4F070 		mov	r0, #480
 229 0058 FFF7FEFF 		bl	CyDelayCycles
 230              	.LVL20:
 217:.\Generated_Source\PSoC5/cyfitter_cfg.c **** 	{ 
 231              		.loc 1 217 0 discriminator 4
 232 005c 013D     		subs	r5, r5, #1
 233              	.LVL21:
 234              	.L13:
 217:.\Generated_Source\PSoC5/cyfitter_cfg.c **** 	{ 
 235              		.loc 1 217 0 is_stmt 0 discriminator 1
ARM GAS  C:\Users\NITISH~1\AppData\Local\Temp\ccmXfqAY.s 			page 10


 236 005e 0DB1     		cbz	r5, .L14
 217:.\Generated_Source\PSoC5/cyfitter_cfg.c **** 	{ 
 237              		.loc 1 217 0 discriminator 3
 238 0060 032C     		cmp	r4, #3
 239 0062 EFD1     		bne	.L15
 240              	.L14:
 222:.\Generated_Source\PSoC5/cyfitter_cfg.c **** 	CY_SET_XTND_REG8((void CYFAR *)(CYREG_CLKDIST_BCFG0), 0x00u);
 241              		.loc 1 222 0 is_stmt 1
 242 0064 0D4A     		ldr	r2, .L17+12
 243 0066 0723     		movs	r3, #7
 244 0068 1370     		strb	r3, [r2]
 223:.\Generated_Source\PSoC5/cyfitter_cfg.c **** 	CY_SET_XTND_REG8((void CYFAR *)(CYREG_CLKDIST_BCFG2), 0x48u);
 245              		.loc 1 223 0
 246 006a 0023     		movs	r3, #0
 247 006c 0D49     		ldr	r1, .L17+20
 248 006e 0B70     		strb	r3, [r1]
 224:.\Generated_Source\PSoC5/cyfitter_cfg.c **** 	CY_SET_XTND_REG8((void CYFAR *)(CYREG_CLKDIST_MSTR0), 0x00u);
 249              		.loc 1 224 0
 250 0070 4820     		movs	r0, #72
 251 0072 0231     		adds	r1, r1, #2
 252 0074 0870     		strb	r0, [r1]
 225:.\Generated_Source\PSoC5/cyfitter_cfg.c **** 
 253              		.loc 1 225 0
 254 0076 1370     		strb	r3, [r2]
 228:.\Generated_Source\PSoC5/cyfitter_cfg.c **** 	CY_SET_XTND_REG8((void CYFAR *)(CYREG_CLKDIST_LD), 0x02u);
 255              		.loc 1 228 0
 256 0078 0532     		adds	r2, r2, #5
 257 007a 1370     		strb	r3, [r2]
 229:.\Generated_Source\PSoC5/cyfitter_cfg.c **** 
 258              		.loc 1 229 0
 259 007c 0222     		movs	r2, #2
 260 007e 0A4B     		ldr	r3, .L17+24
 261 0080 1A70     		strb	r2, [r3]
 231:.\Generated_Source\PSoC5/cyfitter_cfg.c **** }
 262              		.loc 1 231 0
 263 0082 0A4A     		ldr	r2, .L17+28
 264 0084 1378     		ldrb	r3, [r2]	@ zero_extendqisi2
 265 0086 43F00103 		orr	r3, r3, #1
 266 008a 1370     		strb	r3, [r2]
 267 008c 38BD     		pop	{r3, r4, r5, pc}
 268              	.LVL22:
 269              	.L18:
 270 008e 00BF     		.align	2
 271              	.L17:
 272 0090 80400040 		.word	1073758336
 273 0094 0F010049 		.word	1224737039
 274 0098 A1460040 		.word	1073759905
 275 009c 04400040 		.word	1073758212
 276 00a0 25420040 		.word	1073758757
 277 00a4 06400040 		.word	1073758214
 278 00a8 01400040 		.word	1073758209
 279 00ac A2430040 		.word	1073759138
 280              		.cfi_endproc
 281              	.LFE4:
 282              		.size	ClockSetup, .-ClockSetup
 283              		.section	.text.CYCONFIGCPY,"ax",%progbits
 284              		.align	2
ARM GAS  C:\Users\NITISH~1\AppData\Local\Temp\ccmXfqAY.s 			page 11


 285              		.thumb
 286              		.thumb_func
 287              		.type	CYCONFIGCPY, %function
 288              	CYCONFIGCPY:
 289              	.LFB1:
  68:.\Generated_Source\PSoC5/cyfitter_cfg.c **** 	(void)memcpy(dest, src, n);
 290              		.loc 1 68 0
 291              		.cfi_startproc
 292              		@ args = 0, pretend = 0, frame = 0
 293              		@ frame_needed = 0, uses_anonymous_args = 0
 294              	.LVL23:
 295 0000 08B5     		push	{r3, lr}
 296              		.cfi_def_cfa_offset 8
 297              		.cfi_offset 3, -8
 298              		.cfi_offset 14, -4
  69:.\Generated_Source\PSoC5/cyfitter_cfg.c **** }
 299              		.loc 1 69 0
 300 0002 FFF7FEFF 		bl	memcpy
 301              	.LVL24:
 302 0006 08BD     		pop	{r3, pc}
 303              		.cfi_endproc
 304              	.LFE1:
 305              		.size	CYCONFIGCPY, .-CYCONFIGCPY
 306              		.section	.text.SetAnalogRoutingPumps,"ax",%progbits
 307              		.align	2
 308              		.global	SetAnalogRoutingPumps
 309              		.thumb
 310              		.thumb_func
 311              		.type	SetAnalogRoutingPumps, %function
 312              	SetAnalogRoutingPumps:
 313              	.LFB6:
 260:.\Generated_Source\PSoC5/cyfitter_cfg.c **** }
 261:.\Generated_Source\PSoC5/cyfitter_cfg.c **** 
 262:.\Generated_Source\PSoC5/cyfitter_cfg.c **** 
 263:.\Generated_Source\PSoC5/cyfitter_cfg.c **** /*******************************************************************************
 264:.\Generated_Source\PSoC5/cyfitter_cfg.c **** * Function Name: SetAnalogRoutingPumps
 265:.\Generated_Source\PSoC5/cyfitter_cfg.c **** ********************************************************************************
 266:.\Generated_Source\PSoC5/cyfitter_cfg.c **** *
 267:.\Generated_Source\PSoC5/cyfitter_cfg.c **** * Summary:
 268:.\Generated_Source\PSoC5/cyfitter_cfg.c **** * Enables or disables the analog pumps feeding analog routing switches.
 269:.\Generated_Source\PSoC5/cyfitter_cfg.c **** * Intended to be called at startup, based on the Vdda system configuration;
 270:.\Generated_Source\PSoC5/cyfitter_cfg.c **** * may be called during operation when the user informs us that the Vdda voltage
 271:.\Generated_Source\PSoC5/cyfitter_cfg.c **** * crossed the pump threshold.
 272:.\Generated_Source\PSoC5/cyfitter_cfg.c **** *
 273:.\Generated_Source\PSoC5/cyfitter_cfg.c **** * Parameters:
 274:.\Generated_Source\PSoC5/cyfitter_cfg.c **** *  enabled - 1 to enable the pumps, 0 to disable the pumps
 275:.\Generated_Source\PSoC5/cyfitter_cfg.c **** *
 276:.\Generated_Source\PSoC5/cyfitter_cfg.c **** * Return:
 277:.\Generated_Source\PSoC5/cyfitter_cfg.c **** *  void
 278:.\Generated_Source\PSoC5/cyfitter_cfg.c **** *
 279:.\Generated_Source\PSoC5/cyfitter_cfg.c **** *******************************************************************************/
 280:.\Generated_Source\PSoC5/cyfitter_cfg.c **** void SetAnalogRoutingPumps(uint8 enabled)
 281:.\Generated_Source\PSoC5/cyfitter_cfg.c **** {
 314              		.loc 1 281 0
 315              		.cfi_startproc
 316              		@ args = 0, pretend = 0, frame = 0
 317              		@ frame_needed = 0, uses_anonymous_args = 0
ARM GAS  C:\Users\NITISH~1\AppData\Local\Temp\ccmXfqAY.s 			page 12


 318              		@ link register save eliminated.
 319              	.LVL25:
 282:.\Generated_Source\PSoC5/cyfitter_cfg.c **** 	uint8 regValue = CY_GET_XTND_REG8((void CYFAR *)CYREG_PUMP_CR0);
 320              		.loc 1 282 0
 321 0000 024A     		ldr	r2, .L22
 322 0002 1378     		ldrb	r3, [r2]	@ zero_extendqisi2
 323 0004 DBB2     		uxtb	r3, r3
 324              	.LVL26:
 283:.\Generated_Source\PSoC5/cyfitter_cfg.c **** 	if (enabled != 0u)
 284:.\Generated_Source\PSoC5/cyfitter_cfg.c **** 	{
 285:.\Generated_Source\PSoC5/cyfitter_cfg.c **** 		regValue |= 0x00u;
 286:.\Generated_Source\PSoC5/cyfitter_cfg.c **** 	}
 287:.\Generated_Source\PSoC5/cyfitter_cfg.c **** 	else
 288:.\Generated_Source\PSoC5/cyfitter_cfg.c **** 	{
 289:.\Generated_Source\PSoC5/cyfitter_cfg.c **** 		regValue &= (uint8)~0x00u;
 290:.\Generated_Source\PSoC5/cyfitter_cfg.c **** 	}
 291:.\Generated_Source\PSoC5/cyfitter_cfg.c **** 	CY_SET_XTND_REG8((void CYFAR *)CYREG_PUMP_CR0, regValue);
 325              		.loc 1 291 0
 326 0006 1370     		strb	r3, [r2]
 327 0008 7047     		bx	lr
 328              	.L23:
 329 000a 00BF     		.align	2
 330              	.L22:
 331 000c 76580040 		.word	1073764470
 332              		.cfi_endproc
 333              	.LFE6:
 334              		.size	SetAnalogRoutingPumps, .-SetAnalogRoutingPumps
 335              		.section	.text.cyfitter_cfg,"ax",%progbits
 336              		.align	2
 337              		.global	cyfitter_cfg
 338              		.thumb
 339              		.thumb_func
 340              		.type	cyfitter_cfg, %function
 341              	cyfitter_cfg:
 342              	.LFB7:
 292:.\Generated_Source\PSoC5/cyfitter_cfg.c **** }
 293:.\Generated_Source\PSoC5/cyfitter_cfg.c **** 
 294:.\Generated_Source\PSoC5/cyfitter_cfg.c **** #define CY_AMUX_UNUSED CYREG_BOOST_SR
 295:.\Generated_Source\PSoC5/cyfitter_cfg.c **** 
 296:.\Generated_Source\PSoC5/cyfitter_cfg.c **** 
 297:.\Generated_Source\PSoC5/cyfitter_cfg.c **** /*******************************************************************************
 298:.\Generated_Source\PSoC5/cyfitter_cfg.c **** * Function Name: cyfitter_cfg
 299:.\Generated_Source\PSoC5/cyfitter_cfg.c **** ********************************************************************************
 300:.\Generated_Source\PSoC5/cyfitter_cfg.c **** * Summary:
 301:.\Generated_Source\PSoC5/cyfitter_cfg.c **** *  This function is called by the start-up code for the selected device. It
 302:.\Generated_Source\PSoC5/cyfitter_cfg.c **** *  performs all of the necessary device configuration based on the design
 303:.\Generated_Source\PSoC5/cyfitter_cfg.c **** *  settings.  This includes settings from the Design Wide Resources (DWR) such
 304:.\Generated_Source\PSoC5/cyfitter_cfg.c **** *  as Clocks and Pins as well as any component configuration that is necessary.
 305:.\Generated_Source\PSoC5/cyfitter_cfg.c **** *
 306:.\Generated_Source\PSoC5/cyfitter_cfg.c **** * Parameters:  
 307:.\Generated_Source\PSoC5/cyfitter_cfg.c **** *   void
 308:.\Generated_Source\PSoC5/cyfitter_cfg.c **** *
 309:.\Generated_Source\PSoC5/cyfitter_cfg.c **** * Return:
 310:.\Generated_Source\PSoC5/cyfitter_cfg.c **** *   void
 311:.\Generated_Source\PSoC5/cyfitter_cfg.c **** *
 312:.\Generated_Source\PSoC5/cyfitter_cfg.c **** *******************************************************************************/
 313:.\Generated_Source\PSoC5/cyfitter_cfg.c **** 
ARM GAS  C:\Users\NITISH~1\AppData\Local\Temp\ccmXfqAY.s 			page 13


 314:.\Generated_Source\PSoC5/cyfitter_cfg.c **** void cyfitter_cfg(void)
 315:.\Generated_Source\PSoC5/cyfitter_cfg.c **** {
 343              		.loc 1 315 0
 344              		.cfi_startproc
 345              		@ args = 0, pretend = 0, frame = 0
 346              		@ frame_needed = 0, uses_anonymous_args = 0
 347 0000 38B5     		push	{r3, r4, r5, lr}
 348              		.cfi_def_cfa_offset 16
 349              		.cfi_offset 3, -16
 350              		.cfi_offset 4, -12
 351              		.cfi_offset 5, -8
 352              		.cfi_offset 14, -4
 316:.\Generated_Source\PSoC5/cyfitter_cfg.c **** #ifdef CYGlobalIntDisable
 317:.\Generated_Source\PSoC5/cyfitter_cfg.c **** 	/* Disable interrupts by default. Let user enable if/when they want. */
 318:.\Generated_Source\PSoC5/cyfitter_cfg.c **** 	CYGlobalIntDisable
 353              		.loc 1 318 0
 354              	@ 318 ".\Generated_Source\PSoC5\cyfitter_cfg.c" 1
 355 0002 72B6     		CPSID   i
 356              	@ 0 "" 2
 319:.\Generated_Source\PSoC5/cyfitter_cfg.c **** #endif
 320:.\Generated_Source\PSoC5/cyfitter_cfg.c **** 
 321:.\Generated_Source\PSoC5/cyfitter_cfg.c **** 	/* Enable/Disable Debug functionality based on settings from System DWR */
 322:.\Generated_Source\PSoC5/cyfitter_cfg.c **** 	CY_SET_XTND_REG8((void CYFAR *)CYREG_MLOGIC_DEBUG, (CY_GET_XTND_REG8((void CYFAR *)CYREG_MLOGIC_DE
 357              		.loc 1 322 0
 358              		.thumb
 359 0004 274A     		ldr	r2, .L28
 360 0006 1378     		ldrb	r3, [r2]	@ zero_extendqisi2
 361 0008 43F00403 		orr	r3, r3, #4
 362 000c 1370     		strb	r3, [r2]
 363              	.LVL27:
 364              	.LBB3:
 323:.\Generated_Source\PSoC5/cyfitter_cfg.c **** 
 324:.\Generated_Source\PSoC5/cyfitter_cfg.c **** 	{
 325:.\Generated_Source\PSoC5/cyfitter_cfg.c **** 
 326:.\Generated_Source\PSoC5/cyfitter_cfg.c **** 		CYPACKED typedef struct {
 327:.\Generated_Source\PSoC5/cyfitter_cfg.c **** 			void CYFAR *address;
 328:.\Generated_Source\PSoC5/cyfitter_cfg.c **** 			uint16 size;
 329:.\Generated_Source\PSoC5/cyfitter_cfg.c **** 		} CYPACKED_ATTR cfg_memset_t;
 330:.\Generated_Source\PSoC5/cyfitter_cfg.c **** 
 331:.\Generated_Source\PSoC5/cyfitter_cfg.c **** 		static const cfg_memset_t CYCODE cfg_memset_list [] = {
 332:.\Generated_Source\PSoC5/cyfitter_cfg.c **** 			/* address, size */
 333:.\Generated_Source\PSoC5/cyfitter_cfg.c **** 			{(void CYFAR *)(CYREG_PRT0_DR), 32u},
 334:.\Generated_Source\PSoC5/cyfitter_cfg.c **** 			{(void CYFAR *)(CYREG_PRT3_DR), 64u},
 335:.\Generated_Source\PSoC5/cyfitter_cfg.c **** 			{(void CYFAR *)(CYREG_PRT12_DR), 16u},
 336:.\Generated_Source\PSoC5/cyfitter_cfg.c **** 			{(void CYFAR *)(CYDEV_UCFG_B0_P0_U0_BASE), 4096u},
 337:.\Generated_Source\PSoC5/cyfitter_cfg.c **** 			{(void CYFAR *)(CYDEV_UCFG_B1_P2_U0_BASE), 2048u},
 338:.\Generated_Source\PSoC5/cyfitter_cfg.c **** 			{(void CYFAR *)(CYDEV_UCFG_DSI0_BASE), 2560u},
 339:.\Generated_Source\PSoC5/cyfitter_cfg.c **** 			{(void CYFAR *)(CYDEV_UCFG_DSI12_BASE), 512u},
 340:.\Generated_Source\PSoC5/cyfitter_cfg.c **** 			{(void CYFAR *)(CYREG_BCTL0_MDCLK_EN), 32u},
 341:.\Generated_Source\PSoC5/cyfitter_cfg.c **** 		};
 342:.\Generated_Source\PSoC5/cyfitter_cfg.c **** 
 343:.\Generated_Source\PSoC5/cyfitter_cfg.c **** 		uint8 CYDATA i;
 344:.\Generated_Source\PSoC5/cyfitter_cfg.c **** 
 345:.\Generated_Source\PSoC5/cyfitter_cfg.c **** 		/* Zero out critical memory blocks before beginning configuration */
 346:.\Generated_Source\PSoC5/cyfitter_cfg.c **** 		for (i = 0u; i < (sizeof(cfg_memset_list)/sizeof(cfg_memset_list[0])); i++)
 365              		.loc 1 346 0
 366 000e 0024     		movs	r4, #0
ARM GAS  C:\Users\NITISH~1\AppData\Local\Temp\ccmXfqAY.s 			page 14


 367 0010 0CE0     		b	.L25
 368              	.LVL28:
 369              	.L26:
 370              	.LBB4:
 347:.\Generated_Source\PSoC5/cyfitter_cfg.c **** 		{
 348:.\Generated_Source\PSoC5/cyfitter_cfg.c **** 			const cfg_memset_t CYCODE * CYDATA ms = &cfg_memset_list[i];
 349:.\Generated_Source\PSoC5/cyfitter_cfg.c **** 			CYMEMZERO(ms->address, (size_t)(uint32)(ms->size));
 371              		.loc 1 349 0 discriminator 3
 372 0012 2549     		ldr	r1, .L28+4
 373 0014 6300     		lsls	r3, r4, #1
 374 0016 1A19     		adds	r2, r3, r4
 375 0018 5200     		lsls	r2, r2, #1
 376 001a 0A44     		add	r2, r2, r1
 377 001c 2344     		add	r3, r3, r4
 378 001e 5B00     		lsls	r3, r3, #1
 379 0020 C858     		ldr	r0, [r1, r3]	@ unaligned
 380 0022 9188     		ldrh	r1, [r2, #4]
 381 0024 FFF7FEFF 		bl	CYMEMZERO
 382              	.LVL29:
 383              	.LBE4:
 346:.\Generated_Source\PSoC5/cyfitter_cfg.c **** 		{
 384              		.loc 1 346 0 discriminator 3
 385 0028 0134     		adds	r4, r4, #1
 386              	.LVL30:
 387 002a E4B2     		uxtb	r4, r4
 388              	.LVL31:
 389              	.L25:
 346:.\Generated_Source\PSoC5/cyfitter_cfg.c **** 		{
 390              		.loc 1 346 0 is_stmt 0 discriminator 1
 391 002c 072C     		cmp	r4, #7
 392 002e F0D9     		bls	.L26
 350:.\Generated_Source\PSoC5/cyfitter_cfg.c **** 		}
 351:.\Generated_Source\PSoC5/cyfitter_cfg.c **** 
 352:.\Generated_Source\PSoC5/cyfitter_cfg.c **** 		cfg_write_bytes32(cy_cfg_addr_table, cy_cfg_data_table);
 393              		.loc 1 352 0 is_stmt 1
 394 0030 4FF09040 		mov	r0, #1207959552
 395 0034 1D49     		ldr	r1, .L28+8
 396 0036 FFF7FEFF 		bl	cfg_write_bytes32
 397              	.LVL32:
 353:.\Generated_Source\PSoC5/cyfitter_cfg.c **** 
 354:.\Generated_Source\PSoC5/cyfitter_cfg.c **** 		/* Enable digital routing */
 355:.\Generated_Source\PSoC5/cyfitter_cfg.c **** 		CY_SET_XTND_REG8((void CYFAR *)CYREG_BCTL0_BANK_CTL, CY_GET_XTND_REG8((void CYFAR *)CYREG_BCTL0_B
 398              		.loc 1 355 0
 399 003a 1D4A     		ldr	r2, .L28+12
 400 003c 1378     		ldrb	r3, [r2]	@ zero_extendqisi2
 401 003e 43F00203 		orr	r3, r3, #2
 402 0042 1370     		strb	r3, [r2]
 356:.\Generated_Source\PSoC5/cyfitter_cfg.c **** 		CY_SET_XTND_REG8((void CYFAR *)CYREG_BCTL1_BANK_CTL, CY_GET_XTND_REG8((void CYFAR *)CYREG_BCTL1_B
 403              		.loc 1 356 0
 404 0044 1032     		adds	r2, r2, #16
 405 0046 1378     		ldrb	r3, [r2]	@ zero_extendqisi2
 406 0048 43F00203 		orr	r3, r3, #2
 407 004c 1370     		strb	r3, [r2]
 357:.\Generated_Source\PSoC5/cyfitter_cfg.c **** 
 358:.\Generated_Source\PSoC5/cyfitter_cfg.c **** 		/* Enable UDB array */
 359:.\Generated_Source\PSoC5/cyfitter_cfg.c **** 		CY_SET_XTND_REG8((void CYFAR *)CYREG_PM_ACT_CFG0, CY_GET_XTND_REG8((void CYFAR *)CYREG_PM_ACT_CFG
 408              		.loc 1 359 0
ARM GAS  C:\Users\NITISH~1\AppData\Local\Temp\ccmXfqAY.s 			page 15


 409 004e 194C     		ldr	r4, .L28+16
 410              	.LVL33:
 411 0050 2378     		ldrb	r3, [r4]	@ zero_extendqisi2
 412 0052 43F04003 		orr	r3, r3, #64
 413 0056 2370     		strb	r3, [r4]
 360:.\Generated_Source\PSoC5/cyfitter_cfg.c **** 		CY_SET_XTND_REG8((void CYFAR *)CYREG_PM_AVAIL_CR2, CY_GET_XTND_REG8((void CYFAR *)CYREG_PM_AVAIL_
 414              		.loc 1 360 0
 415 0058 A2F58632 		sub	r2, r2, #68608
 416 005c 513A     		subs	r2, r2, #81
 417 005e 1378     		ldrb	r3, [r2]	@ zero_extendqisi2
 418 0060 43F01003 		orr	r3, r3, #16
 419 0064 1370     		strb	r3, [r2]
 420              	.LBE3:
 361:.\Generated_Source\PSoC5/cyfitter_cfg.c **** 	}
 362:.\Generated_Source\PSoC5/cyfitter_cfg.c **** 
 363:.\Generated_Source\PSoC5/cyfitter_cfg.c **** 
 364:.\Generated_Source\PSoC5/cyfitter_cfg.c **** 	/* Perform second pass device configuration. These items must be configured in specific order afte
 365:.\Generated_Source\PSoC5/cyfitter_cfg.c **** 	CYCONFIGCPY((void CYFAR *)(CYREG_PRT15_DR), (const void CYFAR *)(BS_IOPINS0_8_VAL), 10u);
 421              		.loc 1 365 0
 422 0066 1448     		ldr	r0, .L28+20
 423 0068 1449     		ldr	r1, .L28+24
 424 006a 0A22     		movs	r2, #10
 425 006c FFF7FEFF 		bl	CYCONFIGCPY
 426              	.LVL34:
 366:.\Generated_Source\PSoC5/cyfitter_cfg.c **** 	CYCONFIGCPY((void CYFAR *)(CYREG_PRT2_DR), (const void CYFAR *)(BS_IOPINS0_2_VAL), 10u);
 427              		.loc 1 366 0
 428 0070 1348     		ldr	r0, .L28+28
 429 0072 1449     		ldr	r1, .L28+32
 430 0074 0A22     		movs	r2, #10
 431 0076 FFF7FEFF 		bl	CYCONFIGCPY
 432              	.LVL35:
 367:.\Generated_Source\PSoC5/cyfitter_cfg.c **** 	/* Switch Boost to the precision bandgap reference from its internal reference */
 368:.\Generated_Source\PSoC5/cyfitter_cfg.c **** 	CY_SET_REG8((void CYXDATA *)CYREG_BOOST_CR2, (CY_GET_REG8((void CYXDATA *)CYREG_BOOST_CR2) | 0x08u
 433              		.loc 1 368 0
 434 007a 134A     		ldr	r2, .L28+36
 435 007c 1378     		ldrb	r3, [r2]	@ zero_extendqisi2
 436 007e 43F00803 		orr	r3, r3, #8
 437 0082 1370     		strb	r3, [r2]
 369:.\Generated_Source\PSoC5/cyfitter_cfg.c **** 
 370:.\Generated_Source\PSoC5/cyfitter_cfg.c **** 	/* Set Flash Cycles based on max possible frequency in case a glitch occurs during ClockSetup(). *
 371:.\Generated_Source\PSoC5/cyfitter_cfg.c **** 	CY_SET_XTND_REG8((void CYFAR *)(CYREG_CACHE_CC_CTL), (((CYDEV_INSTRUCT_CACHE_ENABLED) != 0) ? 0x61
 438              		.loc 1 371 0
 439 0084 114D     		ldr	r5, .L28+40
 440 0086 6123     		movs	r3, #97
 441 0088 2B70     		strb	r3, [r5]
 372:.\Generated_Source\PSoC5/cyfitter_cfg.c **** 	/* Setup clocks based on selections from Clock DWR */
 373:.\Generated_Source\PSoC5/cyfitter_cfg.c **** 	ClockSetup();
 442              		.loc 1 373 0
 443 008a FFF7FEFF 		bl	ClockSetup
 444              	.LVL36:
 374:.\Generated_Source\PSoC5/cyfitter_cfg.c **** 	/* Set Flash Cycles based on newly configured 24.00MHz Bus Clock. */
 375:.\Generated_Source\PSoC5/cyfitter_cfg.c **** 	CY_SET_XTND_REG8((void CYFAR *)(CYREG_CACHE_CC_CTL), (((CYDEV_INSTRUCT_CACHE_ENABLED) != 0) ? 0x81
 445              		.loc 1 375 0
 446 008e 8123     		movs	r3, #129
 447 0090 2B70     		strb	r3, [r5]
 376:.\Generated_Source\PSoC5/cyfitter_cfg.c **** 
 377:.\Generated_Source\PSoC5/cyfitter_cfg.c **** 	/* Perform basic analog initialization to defaults */
ARM GAS  C:\Users\NITISH~1\AppData\Local\Temp\ccmXfqAY.s 			page 16


 378:.\Generated_Source\PSoC5/cyfitter_cfg.c **** 	AnalogSetDefault();
 448              		.loc 1 378 0
 449 0092 FFF7FEFF 		bl	AnalogSetDefault
 450              	.LVL37:
 379:.\Generated_Source\PSoC5/cyfitter_cfg.c **** 
 380:.\Generated_Source\PSoC5/cyfitter_cfg.c **** 	/* Configure alternate active mode */
 381:.\Generated_Source\PSoC5/cyfitter_cfg.c **** 	CYCONFIGCPY((void CYFAR *)CYDEV_PM_STBY_BASE, (const void CYFAR *)CYDEV_PM_ACT_BASE, 14u);
 451              		.loc 1 381 0
 452 0096 0E48     		ldr	r0, .L28+44
 453 0098 2146     		mov	r1, r4
 454 009a 0E22     		movs	r2, #14
 455 009c FFF7FEFF 		bl	CYCONFIGCPY
 456              	.LVL38:
 457 00a0 38BD     		pop	{r3, r4, r5, pc}
 458              	.L29:
 459 00a2 00BF     		.align	2
 460              	.L28:
 461 00a4 E8460040 		.word	1073759976
 462 00a8 00000000 		.word	.LANCHOR0
 463 00ac 64000048 		.word	1207959652
 464 00b0 03500140 		.word	1073827843
 465 00b4 A0430040 		.word	1073759136
 466 00b8 F0510040 		.word	1073762800
 467 00bc F4030048 		.word	1207960564
 468 00c0 20510040 		.word	1073762592
 469 00c4 00040048 		.word	1207960576
 470 00c8 22430040 		.word	1073759010
 471 00cc 00480040 		.word	1073760256
 472 00d0 B0430040 		.word	1073759152
 473              		.cfi_endproc
 474              	.LFE7:
 475              		.size	cyfitter_cfg, .-cyfitter_cfg
 476              		.section	.rodata
 477              		.align	2
 478              		.set	.LANCHOR0,. + 0
 479              		.type	cfg_memset_list.4874, %object
 480              		.size	cfg_memset_list.4874, 48
 481              	cfg_memset_list.4874:
 482 0000 00510040 		.word	1073762560
 483 0004 2000     		.short	32
 484 0006 30510040 		.4byte	1073762608
 485 000a 4000     		.short	64
 486 000c C0510040 		.word	1073762752
 487 0010 1000     		.short	16
 488 0012 00000140 		.4byte	1073807360
 489 0016 0010     		.short	4096
 490 0018 00140140 		.word	1073812480
 491 001c 0008     		.short	2048
 492 001e 00400140 		.4byte	1073823744
 493 0022 000A     		.short	2560
 494 0024 004C0140 		.word	1073826816
 495 0028 0002     		.short	512
 496 002a 00500140 		.4byte	1073827840
 497 002e 2000     		.short	32
 498              		.text
 499              	.Letext0:
 500              		.file 2 "c:\\program files (x86)\\cypress\\psoc creator\\3.3\\psoc creator\\import\\gnu\\arm\\4.9.
ARM GAS  C:\Users\NITISH~1\AppData\Local\Temp\ccmXfqAY.s 			page 17


 501              		.file 3 ".\\Generated_Source\\PSoC5\\cytypes.h"
 502              		.file 4 ".\\Generated_Source\\PSoC5\\CyLib.h"