ARM GAS  C:\Users\NITISH~1\AppData\Local\Temp\ccMSoBFX.s 			page 1


   1              		.syntax unified
   2              		.cpu cortex-m3
   3              		.fpu softvfp
   4              		.eabi_attribute 20, 1
   5              		.eabi_attribute 21, 1
   6              		.eabi_attribute 23, 3
   7              		.eabi_attribute 24, 1
   8              		.eabi_attribute 25, 1
   9              		.eabi_attribute 26, 1
  10              		.eabi_attribute 30, 1
  11              		.eabi_attribute 34, 1
  12              		.eabi_attribute 18, 4
  13              		.thumb
  14              		.file	"main.c"
  15              		.text
  16              	.Ltext0:
  17              		.cfi_sections	.debug_frame
  18              		.section	.text.usbPutString,"ax",%progbits
  19              		.align	2
  20              		.global	usbPutString
  21              		.thumb
  22              		.thumb_func
  23              		.type	usbPutString, %function
  24              	usbPutString:
  25              	.LFB64:
  26              		.file 1 ".\\main.c"
   1:.\main.c      **** 
   2:.\main.c      **** /* ========================================
   3:.\main.c      ****  * Laboratory Exercise 4
   4:.\main.c      ****  *
   5:.\main.c      ****  * Program a UART to receive the string from a RF receiver.
   6:.\main.c      ****  * The RF receiver : 57.6k b/s, 8b, no parity, no flow control, one start and one stop bit
   7:.\main.c      ****  *
   8:.\main.c      ****  * Copyright Univ of Auckland, 2016
   9:.\main.c      ****  * All Rights Reserved
  10:.\main.c      ****  * UNPUBLISHED, LICENSED SOFTWARE.
  11:.\main.c      ****  *
  12:.\main.c      ****  * CONFIDENTIAL AND PROPRIETARY INFORMATION
  13:.\main.c      ****  * WHICH IS THE PROPERTY OF Univ of Auckland.
  14:.\main.c      ****  *
  15:.\main.c      ****  * ========================================
  16:.\main.c      **** */
  17:.\main.c      **** #include <project.h>
  18:.\main.c      **** #include <stdio.h>
  19:.\main.c      **** 
  20:.\main.c      **** //* ========================================
  21:.\main.c      **** #define TOGGLE_LED LED_Write(~LED_Read())
  22:.\main.c      **** #define PACKETSIZE 32
  23:.\main.c      **** #define RXSTRINGSIZE 255
  24:.\main.c      **** 
  25:.\main.c      **** #define FALSE 0
  26:.\main.c      **** #define TRUE 1
  27:.\main.c      **** 
  28:.\main.c      **** #define BUF_SIZE 64 // USBUART fixed buffer size
  29:.\main.c      **** 
  30:.\main.c      **** #define CHAR_NULL '0'
  31:.\main.c      **** #define CHAR_BACKSP 0x08
ARM GAS  C:\Users\NITISH~1\AppData\Local\Temp\ccMSoBFX.s 			page 2


  32:.\main.c      **** #define CHAR_DEL 0x7F
  33:.\main.c      **** #define CHAR_ENTER 0x0D
  34:.\main.c      **** #define LOW_DIGIT '0'
  35:.\main.c      **** #define HIGH_DIGIT '9'
  36:.\main.c      **** 
  37:.\main.c      **** #define SOP 0xaa
  38:.\main.c      **** //* ========================================
  39:.\main.c      **** uint8 flag_rx = 0;
  40:.\main.c      **** uint8 flag_packet = 0;
  41:.\main.c      **** uint8 flag_KB_string = 0;
  42:.\main.c      **** //* ========================================
  43:.\main.c      **** char rf_string[RXSTRINGSIZE];
  44:.\main.c      **** char displaystring[BUF_SIZE] = "UART Lab Exercise 4\n";
  45:.\main.c      **** char line[BUF_SIZE], entry[BUF_SIZE];
  46:.\main.c      **** uint8 usbBuffer[BUF_SIZE];
  47:.\main.c      **** //* ========================================
  48:.\main.c      **** typedef struct data_main {
  49:.\main.c      **** 	int8            rssi;	
  50:.\main.c      ****     uint8           index;			// index number of packet. incremented number
  51:.\main.c      **** 	uint16			robot_xpos;	 	// 
  52:.\main.c      **** 	uint16			robot_ypos;		//
  53:.\main.c      ****     uint16         robot_orientation;
  54:.\main.c      **** 	uint16			g0_xpos;		//
  55:.\main.c      **** 	uint16			g0_ypos;		//
  56:.\main.c      **** 	uint16			g0_speed;		//
  57:.\main.c      **** 	uint16		g0_direction;	//
  58:.\main.c      **** 	uint16			g1_xpos;		//
  59:.\main.c      **** 	uint16			g1_ypos;		//
  60:.\main.c      **** 	uint16			g1_speed;		//
  61:.\main.c      ****     uint16		g1_direction;	//
  62:.\main.c      ****     uint16			g2_xpos;		//
  63:.\main.c      ****     uint16			g2_ypos;		//
  64:.\main.c      ****     uint16			g2_speed;		//
  65:.\main.c      ****     uint16		g2_direction;	//
  66:.\main.c      **** } vtype1;
  67:.\main.c      **** 
  68:.\main.c      **** struct data_main system_state;
  69:.\main.c      **** //* ========================================
  70:.\main.c      **** 
  71:.\main.c      **** 
  72:.\main.c      **** 
  73:.\main.c      **** //* ========================================
  74:.\main.c      **** void usbPutString(char *s);
  75:.\main.c      **** void usbPutChar(char c);
  76:.\main.c      **** void handle_rx_binary();
  77:.\main.c      **** void handle_rx_ascii();
  78:.\main.c      **** void handle_usb();
  79:.\main.c      **** //* ========================================
  80:.\main.c      **** int main()
  81:.\main.c      **** {
  82:.\main.c      ****     
  83:.\main.c      ****     CyGlobalIntEnable; /* Enable global interrupts. */
  84:.\main.c      ****  
  85:.\main.c      ****     USBUART_Start(0,USBUART_5V_OPERATION);
  86:.\main.c      ****    
  87:.\main.c      ****     
  88:.\main.c      ****     usbPutString(displaystring);
ARM GAS  C:\Users\NITISH~1\AppData\Local\Temp\ccMSoBFX.s 			page 3


  89:.\main.c      ****     /* Place your initialization/startup code here (e.g. MyInst_Start()) */
  90:.\main.c      **** 
  91:.\main.c      ****     for(;;)
  92:.\main.c      ****     {
  93:.\main.c      ****         /* Place your application code here. */
  94:.\main.c      ****         handle_usb();
  95:.\main.c      ****         
  96:.\main.c      ****         if (flag_KB_string == 1)
  97:.\main.c      ****         {
  98:.\main.c      ****             usbPutString("you entered: ");
  99:.\main.c      ****             usbPutString(line);
 100:.\main.c      ****             usbPutChar('\n');
 101:.\main.c      **** //            sprintf(displaystring,"you entered: %s\n",line);
 102:.\main.c      **** //            usbPutString(displaystring);
 103:.\main.c      ****             flag_KB_string = 0;   
 104:.\main.c      ****         }
 105:.\main.c      ****                
 106:.\main.c      ****     }
 107:.\main.c      **** }
 108:.\main.c      **** void usbPutString(char *s)
 109:.\main.c      **** {
  27              		.loc 1 109 0
  28              		.cfi_startproc
  29              		@ args = 0, pretend = 0, frame = 0
  30              		@ frame_needed = 0, uses_anonymous_args = 0
  31              	.LVL0:
  32 0000 10B5     		push	{r4, lr}
  33              		.cfi_def_cfa_offset 8
  34              		.cfi_offset 4, -8
  35              		.cfi_offset 14, -4
  36 0002 0446     		mov	r4, r0
  37              	.LVL1:
  38              	.L2:
 110:.\main.c      **** // !! Assumes that *s is a string with allocated space >=64 chars     
 111:.\main.c      **** //  Since USB implementation retricts data packets to 64 chars, this function truncates the
 112:.\main.c      **** //  length to 62 char (63rd char is a '!')
 113:.\main.c      ****     
 114:.\main.c      ****     while (USBUART_CDCIsReady() == 0);
  39              		.loc 1 114 0 discriminator 1
  40 0004 FFF7FEFF 		bl	USBUART_CDCIsReady
  41              	.LVL2:
  42 0008 0028     		cmp	r0, #0
  43 000a FBD0     		beq	.L2
 115:.\main.c      ****     s[63]='\0';
  44              		.loc 1 115 0
  45 000c 0023     		movs	r3, #0
  46 000e 84F83F30 		strb	r3, [r4, #63]
 116:.\main.c      ****     s[62]='!';
  47              		.loc 1 116 0
  48 0012 2123     		movs	r3, #33
  49 0014 84F83E30 		strb	r3, [r4, #62]
 117:.\main.c      ****     USBUART_PutData((uint8*)s,strlen(s));
  50              		.loc 1 117 0
  51 0018 2046     		mov	r0, r4
  52 001a FFF7FEFF 		bl	strlen
  53              	.LVL3:
  54 001e 81B2     		uxth	r1, r0
ARM GAS  C:\Users\NITISH~1\AppData\Local\Temp\ccMSoBFX.s 			page 4


  55 0020 2046     		mov	r0, r4
  56 0022 FFF7FEFF 		bl	USBUART_PutData
  57              	.LVL4:
  58 0026 10BD     		pop	{r4, pc}
  59              		.cfi_endproc
  60              	.LFE64:
  61              		.size	usbPutString, .-usbPutString
  62              		.section	.text.usbPutChar,"ax",%progbits
  63              		.align	2
  64              		.global	usbPutChar
  65              		.thumb
  66              		.thumb_func
  67              		.type	usbPutChar, %function
  68              	usbPutChar:
  69              	.LFB65:
 118:.\main.c      **** }
 119:.\main.c      **** //* ========================================
 120:.\main.c      **** void usbPutChar(char c)
 121:.\main.c      **** {
  70              		.loc 1 121 0
  71              		.cfi_startproc
  72              		@ args = 0, pretend = 0, frame = 0
  73              		@ frame_needed = 0, uses_anonymous_args = 0
  74              	.LVL5:
  75 0000 10B5     		push	{r4, lr}
  76              		.cfi_def_cfa_offset 8
  77              		.cfi_offset 4, -8
  78              		.cfi_offset 14, -4
  79 0002 0446     		mov	r4, r0
  80              	.LVL6:
  81              	.L5:
 122:.\main.c      ****     while (USBUART_CDCIsReady() == 0);
  82              		.loc 1 122 0 discriminator 1
  83 0004 FFF7FEFF 		bl	USBUART_CDCIsReady
  84              	.LVL7:
  85 0008 0028     		cmp	r0, #0
  86 000a FBD0     		beq	.L5
 123:.\main.c      ****     USBUART_PutChar(c);
  87              		.loc 1 123 0
  88 000c 2046     		mov	r0, r4
  89 000e FFF7FEFF 		bl	USBUART_PutChar
  90              	.LVL8:
  91 0012 10BD     		pop	{r4, pc}
  92              		.cfi_endproc
  93              	.LFE65:
  94              		.size	usbPutChar, .-usbPutChar
  95              		.section	.text.handle_rx_binary,"ax",%progbits
  96              		.align	2
  97              		.global	handle_rx_binary
  98              		.thumb
  99              		.thumb_func
 100              		.type	handle_rx_binary, %function
 101              	handle_rx_binary:
 102              	.LFB66:
 124:.\main.c      **** }
 125:.\main.c      **** //* ========================================
 126:.\main.c      **** void handle_rx_binary()
ARM GAS  C:\Users\NITISH~1\AppData\Local\Temp\ccMSoBFX.s 			page 5


 127:.\main.c      **** {
 103              		.loc 1 127 0
 104              		.cfi_startproc
 105              		@ args = 0, pretend = 0, frame = 0
 106              		@ frame_needed = 0, uses_anonymous_args = 0
 107              		@ link register save eliminated.
 108 0000 7047     		bx	lr
 109              		.cfi_endproc
 110              	.LFE66:
 111              		.size	handle_rx_binary, .-handle_rx_binary
 112 0002 00BF     		.section	.text.handle_rx_ascii,"ax",%progbits
 113              		.align	2
 114              		.global	handle_rx_ascii
 115              		.thumb
 116              		.thumb_func
 117              		.type	handle_rx_ascii, %function
 118              	handle_rx_ascii:
 119              	.LFB67:
 128:.\main.c      ****   
 129:.\main.c      **** }
 130:.\main.c      **** //* ========================================
 131:.\main.c      **** void handle_rx_ascii()
 132:.\main.c      **** {
 120              		.loc 1 132 0
 121              		.cfi_startproc
 122              		@ args = 0, pretend = 0, frame = 0
 123              		@ frame_needed = 0, uses_anonymous_args = 0
 124              		@ link register save eliminated.
 125 0000 7047     		bx	lr
 126              		.cfi_endproc
 127              	.LFE67:
 128              		.size	handle_rx_ascii, .-handle_rx_ascii
 129 0002 00BF     		.section	.text.handle_usb,"ax",%progbits
 130              		.align	2
 131              		.global	handle_usb
 132              		.thumb
 133              		.thumb_func
 134              		.type	handle_usb, %function
 135              	handle_usb:
 136              	.LFB68:
 133:.\main.c      ****  
 134:.\main.c      **** }
 135:.\main.c      **** 
 136:.\main.c      **** //* ========================================
 137:.\main.c      **** void handle_usb()
 138:.\main.c      **** {
 137              		.loc 1 138 0
 138              		.cfi_startproc
 139              		@ args = 0, pretend = 0, frame = 0
 140              		@ frame_needed = 0, uses_anonymous_args = 0
 141              		.loc 1 138 0
 142 0000 38B5     		push	{r3, r4, r5, lr}
 143              		.cfi_def_cfa_offset 16
 144              		.cfi_offset 3, -16
 145              		.cfi_offset 4, -12
 146              		.cfi_offset 5, -8
 147              		.cfi_offset 14, -4
ARM GAS  C:\Users\NITISH~1\AppData\Local\Temp\ccMSoBFX.s 			page 6


 139:.\main.c      ****     
 140:.\main.c      ****     // handles input at terminal, echos it back to the terminal
 141:.\main.c      ****     // turn echo OFF, key emulation: only CR
 142:.\main.c      ****     // entered string is made available in 'line' and 'flag_KB_string' is set
 143:.\main.c      ****     
 144:.\main.c      ****     static uint8 usbStarted = FALSE;
 145:.\main.c      ****     static uint16 usbBufCount = 0;
 146:.\main.c      ****     uint8 c; 
 147:.\main.c      ****     
 148:.\main.c      **** 
 149:.\main.c      ****     if (!usbStarted)
 148              		.loc 1 149 0
 149 0002 1D4B     		ldr	r3, .L18
 150 0004 1B78     		ldrb	r3, [r3]	@ zero_extendqisi2
 151 0006 4BB9     		cbnz	r3, .L10
 150:.\main.c      ****     {
 151:.\main.c      ****         if (USBUART_GetConfiguration())
 152              		.loc 1 151 0
 153 0008 FFF7FEFF 		bl	USBUART_GetConfiguration
 154              	.LVL9:
 155 000c 0028     		cmp	r0, #0
 156 000e 32D0     		beq	.L9
 152:.\main.c      ****         {
 153:.\main.c      ****             USBUART_CDC_Init();
 157              		.loc 1 153 0
 158 0010 FFF7FEFF 		bl	USBUART_CDC_Init
 159              	.LVL10:
 154:.\main.c      ****             usbStarted = TRUE;
 160              		.loc 1 154 0
 161 0014 0122     		movs	r2, #1
 162 0016 184B     		ldr	r3, .L18
 163 0018 1A70     		strb	r2, [r3]
 164 001a 38BD     		pop	{r3, r4, r5, pc}
 165              	.L10:
 155:.\main.c      ****         }
 156:.\main.c      ****     }
 157:.\main.c      ****     else
 158:.\main.c      ****     {
 159:.\main.c      ****         if (USBUART_DataIsReady() != 0)
 166              		.loc 1 159 0
 167 001c FFF7FEFF 		bl	USBUART_DataIsReady
 168              	.LVL11:
 169 0020 48B3     		cbz	r0, .L9
 160:.\main.c      ****         {  
 161:.\main.c      ****             c = USBUART_GetChar();
 170              		.loc 1 161 0
 171 0022 FFF7FEFF 		bl	USBUART_GetChar
 172              	.LVL12:
 162:.\main.c      ****             if ((c == 13) || (c == 10))
 173              		.loc 1 162 0
 174 0026 0D28     		cmp	r0, #13
 175 0028 01D0     		beq	.L12
 176              		.loc 1 162 0 is_stmt 0 discriminator 1
 177 002a 0A28     		cmp	r0, #10
 178 002c 0BD1     		bne	.L13
 179              	.L12:
 163:.\main.c      ****             {
ARM GAS  C:\Users\NITISH~1\AppData\Local\Temp\ccMSoBFX.s 			page 7


 164:.\main.c      ****                 entry[usbBufCount]= '\0';
 180              		.loc 1 164 0 is_stmt 1
 181 002e 124C     		ldr	r4, .L18
 182 0030 6388     		ldrh	r3, [r4, #2]
 183 0032 1249     		ldr	r1, .L18+4
 184 0034 0025     		movs	r5, #0
 185 0036 CD54     		strb	r5, [r1, r3]
 165:.\main.c      ****                 strcpy(line,entry);
 186              		.loc 1 165 0
 187 0038 1148     		ldr	r0, .L18+8
 188              	.LVL13:
 189 003a FFF7FEFF 		bl	strcpy
 190              	.LVL14:
 166:.\main.c      ****                 usbBufCount = 0;
 191              		.loc 1 166 0
 192 003e 6580     		strh	r5, [r4, #2]	@ movhi
 167:.\main.c      ****                 flag_KB_string = 1;
 193              		.loc 1 167 0
 194 0040 0123     		movs	r3, #1
 195 0042 2371     		strb	r3, [r4, #4]
 196 0044 38BD     		pop	{r3, r4, r5, pc}
 197              	.LVL15:
 198              	.L13:
 168:.\main.c      ****             }
 169:.\main.c      ****             else 
 170:.\main.c      ****             {
 171:.\main.c      ****                 if (((c == CHAR_BACKSP) || (c == CHAR_DEL) ) && (usbBufCount > 0) )
 199              		.loc 1 171 0
 200 0046 0828     		cmp	r0, #8
 201 0048 01D0     		beq	.L14
 202              		.loc 1 171 0 is_stmt 0 discriminator 2
 203 004a 7F28     		cmp	r0, #127
 204 004c 06D1     		bne	.L15
 205              	.L14:
 206              		.loc 1 171 0 discriminator 3
 207 004e 0A4B     		ldr	r3, .L18
 208 0050 5B88     		ldrh	r3, [r3, #2]
 209 0052 1BB1     		cbz	r3, .L15
 172:.\main.c      ****                     usbBufCount--;
 210              		.loc 1 172 0 is_stmt 1
 211 0054 013B     		subs	r3, r3, #1
 212 0056 084A     		ldr	r2, .L18
 213 0058 5380     		strh	r3, [r2, #2]	@ movhi
 214 005a 38BD     		pop	{r3, r4, r5, pc}
 215              	.L15:
 173:.\main.c      ****                 else
 174:.\main.c      ****                 {
 175:.\main.c      ****                     if (usbBufCount > (BUF_SIZE-1) )
 216              		.loc 1 175 0
 217 005c 064B     		ldr	r3, .L18
 218 005e 5B88     		ldrh	r3, [r3, #2]
 219 0060 3F2B     		cmp	r3, #63
 220 0062 03D9     		bls	.L16
 176:.\main.c      ****                     {
 177:.\main.c      ****                        USBUART_PutChar('!');        
 221              		.loc 1 177 0
 222 0064 2120     		movs	r0, #33
ARM GAS  C:\Users\NITISH~1\AppData\Local\Temp\ccMSoBFX.s 			page 8


 223              	.LVL16:
 224 0066 FFF7FEFF 		bl	USBUART_PutChar
 225              	.LVL17:
 226 006a 38BD     		pop	{r3, r4, r5, pc}
 227              	.LVL18:
 228              	.L16:
 178:.\main.c      ****                     }
 179:.\main.c      ****                     else
 180:.\main.c      ****                         entry[usbBufCount++] = c;  
 229              		.loc 1 180 0
 230 006c 591C     		adds	r1, r3, #1
 231 006e 024A     		ldr	r2, .L18
 232 0070 5180     		strh	r1, [r2, #2]	@ movhi
 233 0072 024A     		ldr	r2, .L18+4
 234 0074 D054     		strb	r0, [r2, r3]
 235              	.LVL19:
 236              	.L9:
 237 0076 38BD     		pop	{r3, r4, r5, pc}
 238              	.L19:
 239              		.align	2
 240              	.L18:
 241 0078 00000000 		.word	.LANCHOR0
 242 007c 00000000 		.word	entry
 243 0080 00000000 		.word	line
 244              		.cfi_endproc
 245              	.LFE68:
 246              		.size	handle_usb, .-handle_usb
 247              		.section	.text.main,"ax",%progbits
 248              		.align	2
 249              		.global	main
 250              		.thumb
 251              		.thumb_func
 252              		.type	main, %function
 253              	main:
 254              	.LFB63:
  81:.\main.c      ****     
 255              		.loc 1 81 0
 256              		.cfi_startproc
 257              		@ Volatile: function does not return.
 258              		@ args = 0, pretend = 0, frame = 0
 259              		@ frame_needed = 0, uses_anonymous_args = 0
 260 0000 08B5     		push	{r3, lr}
 261              		.cfi_def_cfa_offset 8
 262              		.cfi_offset 3, -8
 263              		.cfi_offset 14, -4
  83:.\main.c      ****  
 264              		.loc 1 83 0
 265              	@ 83 ".\main.c" 1
 266 0002 62B6     		CPSIE   i
 267              	@ 0 "" 2
  85:.\main.c      ****    
 268              		.loc 1 85 0
 269              		.thumb
 270 0004 0020     		movs	r0, #0
 271 0006 0121     		movs	r1, #1
 272 0008 FFF7FEFF 		bl	USBUART_Start
 273              	.LVL20:
ARM GAS  C:\Users\NITISH~1\AppData\Local\Temp\ccMSoBFX.s 			page 9


  88:.\main.c      ****     /* Place your initialization/startup code here (e.g. MyInst_Start()) */
 274              		.loc 1 88 0
 275 000c 0A48     		ldr	r0, .L24
 276 000e FFF7FEFF 		bl	usbPutString
 277              	.LVL21:
 278              	.L21:
  94:.\main.c      ****         
 279              		.loc 1 94 0
 280 0012 FFF7FEFF 		bl	handle_usb
 281              	.LVL22:
  96:.\main.c      ****         {
 282              		.loc 1 96 0
 283 0016 094B     		ldr	r3, .L24+4
 284 0018 1B79     		ldrb	r3, [r3, #4]	@ zero_extendqisi2
 285 001a 012B     		cmp	r3, #1
 286 001c F9D1     		bne	.L21
  98:.\main.c      ****             usbPutString(line);
 287              		.loc 1 98 0
 288 001e 0848     		ldr	r0, .L24+8
 289 0020 FFF7FEFF 		bl	usbPutString
 290              	.LVL23:
  99:.\main.c      ****             usbPutChar('\n');
 291              		.loc 1 99 0
 292 0024 0748     		ldr	r0, .L24+12
 293 0026 FFF7FEFF 		bl	usbPutString
 294              	.LVL24:
 100:.\main.c      **** //            sprintf(displaystring,"you entered: %s\n",line);
 295              		.loc 1 100 0
 296 002a 0A20     		movs	r0, #10
 297 002c FFF7FEFF 		bl	usbPutChar
 298              	.LVL25:
 103:.\main.c      ****         }
 299              		.loc 1 103 0
 300 0030 0022     		movs	r2, #0
 301 0032 024B     		ldr	r3, .L24+4
 302 0034 1A71     		strb	r2, [r3, #4]
 303 0036 ECE7     		b	.L21
 304              	.L25:
 305              		.align	2
 306              	.L24:
 307 0038 00000000 		.word	.LANCHOR1
 308 003c 00000000 		.word	.LANCHOR0
 309 0040 00000000 		.word	.LC0
 310 0044 00000000 		.word	line
 311              		.cfi_endproc
 312              	.LFE63:
 313              		.size	main, .-main
 314              		.comm	system_state,32,4
 315              		.comm	usbBuffer,64,4
 316              		.comm	entry,64,4
 317              		.comm	line,64,4
 318              		.global	displaystring
 319              		.comm	rf_string,255,4
 320              		.global	flag_KB_string
 321              		.global	flag_packet
 322              		.global	flag_rx
 323              		.data
ARM GAS  C:\Users\NITISH~1\AppData\Local\Temp\ccMSoBFX.s 			page 10


 324              		.align	2
 325              		.set	.LANCHOR1,. + 0
 326              		.type	displaystring, %object
 327              		.size	displaystring, 64
 328              	displaystring:
 329 0000 55415254 		.ascii	"UART Lab Exercise 4\012\000"
 329      204C6162 
 329      20457865 
 329      72636973 
 329      6520340A 
 330 0015 00000000 		.space	43
 330      00000000 
 330      00000000 
 330      00000000 
 330      00000000 
 331              		.section	.rodata.str1.4,"aMS",%progbits,1
 332              		.align	2
 333              	.LC0:
 334 0000 796F7520 		.ascii	"you entered: \000"
 334      656E7465 
 334      7265643A 
 334      2000
 335 000e 0000     		.bss
 336              		.align	1
 337              		.set	.LANCHOR0,. + 0
 338              		.type	usbStarted.6695, %object
 339              		.size	usbStarted.6695, 1
 340              	usbStarted.6695:
 341 0000 00       		.space	1
 342 0001 00       		.space	1
 343              		.type	usbBufCount.6696, %object
 344              		.size	usbBufCount.6696, 2
 345              	usbBufCount.6696:
 346 0002 0000     		.space	2
 347              		.type	flag_KB_string, %object
 348              		.size	flag_KB_string, 1
 349              	flag_KB_string:
 350 0004 00       		.space	1
 351              		.type	flag_packet, %object
 352              		.size	flag_packet, 1
 353              	flag_packet:
 354 0005 00       		.space	1
 355              		.type	flag_rx, %object
 356              		.size	flag_rx, 1
 357              	flag_rx:
 358 0006 00       		.space	1
 359 0007 00       		.text
 360              	.Letext0:
 361              		.file 2 "c:\\program files (x86)\\cypress\\psoc creator\\3.3\\psoc creator\\import\\gnu\\arm\\4.9.
 362              		.file 3 "c:\\program files (x86)\\cypress\\psoc creator\\3.3\\psoc creator\\import\\gnu\\arm\\4.9.
 363              		.file 4 "Generated_Source\\PSoC5/cytypes.h"
 364              		.file 5 "c:\\program files (x86)\\cypress\\psoc creator\\3.3\\psoc creator\\import\\gnu\\arm\\4.9.
 365              		.file 6 "Generated_Source\\PSoC5/core_cm3.h"
 366              		.file 7 "Generated_Source\\PSoC5/USBUART_cdc.h"
 367              		.file 8 "Generated_Source\\PSoC5/USBUART.h"
 368              		.file 9 "c:\\program files (x86)\\cypress\\psoc creator\\3.3\\psoc creator\\import\\gnu\\arm\\4.9.